
BKI.elf:     file format elf32-avr

Sections:
Idx Name          Size      VMA       LMA       File off  Algn
  0 .text         0000438c  00000000  00000000  000000b4  2**1
                  CONTENTS, ALLOC, LOAD, READONLY, CODE
  1 .data         00000102  00800060  0000438c  00004440  2**0
                  CONTENTS, ALLOC, LOAD, DATA
  2 .bss          00000487  00800162  00800162  00004542  2**0
                  ALLOC
  3 .eeprom       000000cf  00810000  00810000  00004542  2**0
                  CONTENTS, ALLOC, LOAD, DATA
  4 .comment      0000005c  00000000  00000000  00004611  2**0
                  CONTENTS, READONLY
  5 .note.gnu.avr.deviceinfo 0000003c  00000000  00000000  00004670  2**2
                  CONTENTS, READONLY
  6 .debug_info   000004e6  00000000  00000000  000046ac  2**0
                  CONTENTS, READONLY, DEBUGGING
  7 .debug_abbrev 000004a3  00000000  00000000  00004b92  2**0
                  CONTENTS, READONLY, DEBUGGING
  8 .debug_line   0000001a  00000000  00000000  00005035  2**0
                  CONTENTS, READONLY, DEBUGGING
  9 .debug_str    00000196  00000000  00000000  0000504f  2**0
                  CONTENTS, READONLY, DEBUGGING

Disassembly of section .text:

00000000 <__vectors>:
       0:	0c 94 52 01 	jmp	0x2a4	; 0x2a4 <__ctors_end>
       4:	0c 94 69 0c 	jmp	0x18d2	; 0x18d2 <__vector_1>
       8:	0c 94 6f 01 	jmp	0x2de	; 0x2de <__bad_interrupt>
       c:	0c 94 6f 01 	jmp	0x2de	; 0x2de <__bad_interrupt>
      10:	0c 94 6f 01 	jmp	0x2de	; 0x2de <__bad_interrupt>
      14:	0c 94 6f 01 	jmp	0x2de	; 0x2de <__bad_interrupt>
      18:	0c 94 6f 01 	jmp	0x2de	; 0x2de <__bad_interrupt>
      1c:	0c 94 34 1b 	jmp	0x3668	; 0x3668 <__vector_7>
      20:	0c 94 6f 01 	jmp	0x2de	; 0x2de <__bad_interrupt>
      24:	0c 94 6f 01 	jmp	0x2de	; 0x2de <__bad_interrupt>
      28:	0c 94 6f 01 	jmp	0x2de	; 0x2de <__bad_interrupt>
      2c:	0c 94 6f 01 	jmp	0x2de	; 0x2de <__bad_interrupt>
      30:	0c 94 6f 01 	jmp	0x2de	; 0x2de <__bad_interrupt>
      34:	0c 94 a1 1b 	jmp	0x3742	; 0x3742 <__vector_13>
      38:	0c 94 6f 01 	jmp	0x2de	; 0x2de <__bad_interrupt>
      3c:	0c 94 6f 01 	jmp	0x2de	; 0x2de <__bad_interrupt>
      40:	0c 94 6f 01 	jmp	0x2de	; 0x2de <__bad_interrupt>
      44:	0c 94 6f 01 	jmp	0x2de	; 0x2de <__bad_interrupt>
      48:	0c 94 6f 01 	jmp	0x2de	; 0x2de <__bad_interrupt>
      4c:	0c 94 6f 01 	jmp	0x2de	; 0x2de <__bad_interrupt>
      50:	0c 94 6f 01 	jmp	0x2de	; 0x2de <__bad_interrupt>

00000054 <NEDOSTUPNO>:
      54:	ed e5 e4 ee f1 f2 f3 ef ed ee 00                    ...........

0000005f <NOVOE_ZNACHENIE>:
      5f:	cd ce c2 ce c5 20 c7 cd c0 d7 c5 cd c8 c5 00        ..... .........

0000006e <PAROL>:
      6e:	cf c0 d0 ce cb dc 00                                .......

00000075 <MS>:
      75:	ec f1 00                                            ...

00000078 <OTKL_MTZ>:
      78:	ee f2 ea eb 2e cc d2 c7 3a 00                       ........:.

00000082 <VKL_MTZ>:
      82:	e2 ea eb 2e cc d2 c7 3a 00                          .......:.

0000008b <PUSTO>:
      8b:	3c ef f3 f1 f2 ee 3e 00                             <.....>.

00000093 <OBNARUZHENO>:
      93:	ee e1 ed e0 f0 f3 e6 e5 ed ee 20 c1 c4 c7 3a 00     .......... ...:.

000000a3 <SBROSIT>:
      a3:	d1 e1 f0 ee f1 e8 f2 fc 3f 20 e4 e0 2d 22 c2 c2     ........? ..-"..
      b3:	ce c4 22 00                                         ..".

000000b7 <NET>:
      b7:	ed e5 f2 00                                         ....

000000bb <NET_SVYAZI>:
      bb:	ed e5 f2 20 f1 e2 ff e7 e8 00                       ... ......

000000c5 <OSHIBKA>:
      c5:	ee f8 e8 e1 ea e0 00                                .......

000000cc <NET_GOTOVNOSTI>:
      cc:	cd c5 d2 20 c3 ce d2 ce c2 cd ce d1 d2 c8 00        ... ...........

000000db <VREMYA_UROV>:
      db:	c2 d0 c5 cc df 20 d3 d0 ce c2 00                    ..... .....

000000e6 <VREMYA_MTZ>:
      e6:	c2 d0 c5 cc df 20 cc d2 c7 00                       ..... ....

000000f0 <ADRES>:
      f0:	c0 c4 d0 c5 d1 00                                   ......

000000f6 <C_NONE>:
      f6:	4e 4f 4e 45 00                                      NONE.

000000fb <C_EVEN>:
      fb:	45 56 45 4e 00                                      EVEN.

00000100 <C_ODD>:
     100:	4f 44 44 00                                         ODD.

00000104 <CHETNOST>:
     104:	d7 c5 d2 cd ce d1 d2 dc 00                          .........

0000010d <SKOROST>:
     10d:	d1 ca ce d0 ce d1 d2 dc 00                          .........

00000116 <ASCII_M>:
     116:	41 53 43 49 49 00                                   ASCII.

0000011c <RTU_M>:
     11c:	52 54 55 00                                         RTU.

00000120 <REZHIM>:
     120:	d0 c5 c6 c8 cc 00                                   ......

00000126 <SVYAZ>:
     126:	d1 c2 df c7 dc 20 52 53 34 38 35 00                 ..... RS485.

00000132 <PROGRAMMIROVANIE>:
     132:	cf d0 ce c3 d0 c0 cc cc c8 d0 ce c2 c0 cd c8 c5     ................
	...

00000143 <SCANIROVANIE>:
     143:	d1 ca c0 cd c8 d0 ce c2 c0 cd c8 c5 00              .............

00000150 <DATAVREMYA>:
     150:	c4 c0 d2 c0 2f c2 d0 c5 cc df 00                    ..../......

0000015b <RELE>:
     15b:	d0 c5 cb c5 00                                      .....

00000160 <DVX>:
     160:	c4 c2 d5 00                                         ....

00000164 <VOD>:
     164:	c2 ce c4 00                                         ....

00000168 <BDZ>:
     168:	c1 c4 c7 00                                         ....

0000016c <NASTROYKA>:
     16c:	cd c0 d1 d2 d0 ce c9 ca c0 00                       ..........

00000176 <ARHIV>:
     176:	c0 d0 d5 c8 c2 00                                   ......

0000017c <NA_SVYAZI>:
     17c:	cd c0 20 d1 c2 df c7 c8 00                          .. ......

00000185 <MENU>:
     185:	cc c5 cd de 00                                      .....

0000018a <NEISPRAVNOST>:
     18a:	cd c5 c8 d1 cf d0 c0 c2 cd ce d1 d2 dc 00           ..............

00000198 <AVARIYA>:
     198:	c0 c2 c0 d0 c8 df 00                                .......

0000019f <RABOTA>:
     19f:	d0 c0 c1 ce d2 c0 31 00                             ......1.

000001a7 <YPOB>:
     1a7:	d3 d0 ce c2 3a 00                                   ....:.

000001ad <MTZ>:
     1ad:	cc d2 c7 3a 00                                      ...:.

000001b2 <WAIT>:
     1b2:	cf ce c4 ce c6 c4 c8 d2 c5 3a 00                    .........:.

000001bd <EXIT4>:
     1bd:	c2 db d5 34 3a 00                                   ...4:.

000001c3 <EXIT3>:
     1c3:	c2 db d5 33 3a 00                                   ...3:.

000001c9 <EXIT2>:
     1c9:	c2 db d5 32 3a 00                                   ...2:.

000001cf <EXIT1>:
     1cf:	c2 db d5 31 3a 00                                   ...1:.

000001d5 <CHOSE_EXT>:
     1d5:	c2 db d5 ce c4 db 00                                .......

000001dc <CONFIRM>:
     1dc:	d0 c5 c6 c8 cc 20 cf ce c4 d2 c2 c5 d0 c6 c4 c5     ..... ..........
     1ec:	cd c8 df 00                                         ....

000001f0 <OFF>:
     1f0:	c2 db ca cb 00                                      .....

000001f5 <ON>:
     1f5:	c2 ca cb 00                                         ....

000001f9 <DVX3>:
     1f9:	c4 c2 d5 33 00                                      ...3.

000001fe <DVX2>:
     1fe:	c4 c2 d5 32 00                                      ...2.

00000203 <DVX1>:
     203:	c4 c2 d5 31 00                                      ...1.

00000208 <VOD4>:
     208:	c2 ce c4 34 00                                      ...4.

0000020d <VOD3>:
     20d:	c2 ce c4 33 00                                      ...3.

00000212 <VOD2>:
     212:	c2 ce c4 32 00                                      ...2.

00000217 <VOD1>:
     217:	c2 ce c4 31 00                                      ...1.

0000021c <CHOSE_ENT>:
     21c:	c2 d5 ce c4 db 00                                   ......

00000222 <LOGIKA>:
     222:	cb ce c3 c8 ca c0 20 d0 c0 c1 ce d2 db 00           ...... .......

00000230 <OSHIBKA_ADDR>:
     230:	ce d8 c8 c1 ca c0 20 e0 e4 f0 e5 f1 20 e7 e0 ed     ...... ..... ...
     240:	ff f2 00                                            ...

00000243 <STAROE_ZNACHENIE>:
     243:	d1 d2 c0 d0 ce c5 20 c7 cd c0 d7 c5 cd c8 c5 00     ...... .........

00000253 <NUMM>:
     253:	cd ce cc c5 d0 20 c1 c4 c7 00                       ..... ....

0000025d <NOVOE>:
     25d:	cd ce c2 ce c5 00                                   ......

00000263 <lcd_codepage>:
     263:	41 a0 42 a1 e0 45 a3 a4 a5 a6 4b a7 4d 48 4f a8     A.B..E....K.MHO.
     273:	50 43 54 a9 aa 58 e1 ab ac e2 ad ae 62 af b0 b1     PCT..X......b...
     283:	61 b2 b3 b4 e3 65 b6 b7 b8 b9 ba bb bc bd 6f be     a....e........o.
     293:	70 63 bf 79 e4 78 e5 c0 c1 e6 c2 c3 c4 c5 c6 c7     pc.y.x..........
	...

000002a4 <__ctors_end>:
     2a4:	11 24       	eor	r1, r1
     2a6:	1f be       	out	0x3f, r1	; 63
     2a8:	cf e5       	ldi	r28, 0x5F	; 95
     2aa:	d8 e0       	ldi	r29, 0x08	; 8
     2ac:	de bf       	out	0x3e, r29	; 62
     2ae:	cd bf       	out	0x3d, r28	; 61

000002b0 <__do_copy_data>:
     2b0:	11 e0       	ldi	r17, 0x01	; 1
     2b2:	a0 e6       	ldi	r26, 0x60	; 96
     2b4:	b0 e0       	ldi	r27, 0x00	; 0
     2b6:	ec e8       	ldi	r30, 0x8C	; 140
     2b8:	f3 e4       	ldi	r31, 0x43	; 67
     2ba:	02 c0       	rjmp	.+4      	; 0x2c0 <__do_copy_data+0x10>
     2bc:	05 90       	lpm	r0, Z+
     2be:	0d 92       	st	X+, r0
     2c0:	a2 36       	cpi	r26, 0x62	; 98
     2c2:	b1 07       	cpc	r27, r17
     2c4:	d9 f7       	brne	.-10     	; 0x2bc <__do_copy_data+0xc>

000002c6 <__do_clear_bss>:
     2c6:	25 e0       	ldi	r18, 0x05	; 5
     2c8:	a2 e6       	ldi	r26, 0x62	; 98
     2ca:	b1 e0       	ldi	r27, 0x01	; 1
     2cc:	01 c0       	rjmp	.+2      	; 0x2d0 <.do_clear_bss_start>

000002ce <.do_clear_bss_loop>:
     2ce:	1d 92       	st	X+, r1

000002d0 <.do_clear_bss_start>:
     2d0:	a9 3e       	cpi	r26, 0xE9	; 233
     2d2:	b2 07       	cpc	r27, r18
     2d4:	e1 f7       	brne	.-8      	; 0x2ce <.do_clear_bss_loop>
     2d6:	0e 94 14 19 	call	0x3228	; 0x3228 <main>
     2da:	0c 94 c4 21 	jmp	0x4388	; 0x4388 <_exit>

000002de <__bad_interrupt>:
     2de:	0c 94 00 00 	jmp	0	; 0x0 <__vectors>

000002e2 <checkTOUT>:
     2e2:	28 ee       	ldi	r18, 0xE8	; 232
     2e4:	33 e0       	ldi	r19, 0x03	; 3
     2e6:	30 93 fb 04 	sts	0x04FB, r19	; 0x8004fb <CAN_timeout+0x1>
     2ea:	20 93 fa 04 	sts	0x04FA, r18	; 0x8004fa <CAN_timeout>
     2ee:	29 e0       	ldi	r18, 0x09	; 9
     2f0:	82 9f       	mul	r24, r18
     2f2:	c0 01       	movw	r24, r0
     2f4:	11 24       	eor	r1, r1
     2f6:	fc 01       	movw	r30, r24
     2f8:	e9 57       	subi	r30, 0x79	; 121
     2fa:	fe 4f       	sbci	r31, 0xFE	; 254
     2fc:	80 81       	ld	r24, Z
     2fe:	82 fd       	sbrc	r24, 2
     300:	06 c0       	rjmp	.+12     	; 0x30e <checkTOUT+0x2c>
     302:	80 91 fa 04 	lds	r24, 0x04FA	; 0x8004fa <CAN_timeout>
     306:	90 91 fb 04 	lds	r25, 0x04FB	; 0x8004fb <CAN_timeout+0x1>
     30a:	89 2b       	or	r24, r25
     30c:	b9 f7       	brne	.-18     	; 0x2fc <checkTOUT+0x1a>
     30e:	80 91 fa 04 	lds	r24, 0x04FA	; 0x8004fa <CAN_timeout>
     312:	90 91 fb 04 	lds	r25, 0x04FB	; 0x8004fb <CAN_timeout+0x1>
     316:	89 2b       	or	r24, r25
     318:	31 f0       	breq	.+12     	; 0x326 <checkTOUT+0x44>
     31a:	80 91 63 01 	lds	r24, 0x0163	; 0x800163 <CAN_ERR>
     31e:	81 11       	cpse	r24, r1
     320:	02 c0       	rjmp	.+4      	; 0x326 <checkTOUT+0x44>
     322:	81 e0       	ldi	r24, 0x01	; 1
     324:	08 95       	ret
     326:	8f ef       	ldi	r24, 0xFF	; 255
     328:	08 95       	ret

0000032a <LCD_strob>:
     32a:	ac 9a       	sbi	0x15, 4	; 21
     32c:	8f e9       	ldi	r24, 0x9F	; 159
     32e:	9f e0       	ldi	r25, 0x0F	; 15
     330:	01 97       	sbiw	r24, 0x01	; 1
     332:	f1 f7       	brne	.-4      	; 0x330 <LCD_strob+0x6>
     334:	00 c0       	rjmp	.+0      	; 0x336 <LCD_strob+0xc>
     336:	00 00       	nop
     338:	ac 98       	cbi	0x15, 4	; 21
     33a:	8f e9       	ldi	r24, 0x9F	; 159
     33c:	9f e0       	ldi	r25, 0x0F	; 15
     33e:	01 97       	sbiw	r24, 0x01	; 1
     340:	f1 f7       	brne	.-4      	; 0x33e <LCD_strob+0x14>
     342:	00 c0       	rjmp	.+0      	; 0x344 <LCD_strob+0x1a>
     344:	00 00       	nop
     346:	08 95       	ret

00000348 <TWI_init>:
     348:	88 e4       	ldi	r24, 0x48	; 72
     34a:	80 b9       	out	0x00, r24	; 0
     34c:	86 b7       	in	r24, 0x36	; 54
     34e:	84 64       	ori	r24, 0x44	; 68
     350:	86 bf       	out	0x36, r24	; 54
     352:	08 98       	cbi	0x01, 0	; 1
     354:	08 95       	ret

00000356 <twi_write>:
     356:	28 ee       	ldi	r18, 0xE8	; 232
     358:	33 e0       	ldi	r19, 0x03	; 3
     35a:	30 93 97 05 	sts	0x0597, r19	; 0x800597 <TWI_timeout+0x1>
     35e:	20 93 96 05 	sts	0x0596, r18	; 0x800596 <TWI_timeout>
     362:	94 ea       	ldi	r25, 0xA4	; 164
     364:	96 bf       	out	0x36, r25	; 54
     366:	06 b6       	in	r0, 0x36	; 54
     368:	07 fc       	sbrc	r0, 7
     36a:	08 c0       	rjmp	.+16     	; 0x37c <twi_write+0x26>
     36c:	20 91 96 05 	lds	r18, 0x0596	; 0x800596 <TWI_timeout>
     370:	30 91 97 05 	lds	r19, 0x0597	; 0x800597 <TWI_timeout+0x1>
     374:	23 2b       	or	r18, r19
     376:	b9 f7       	brne	.-18     	; 0x366 <twi_write+0x10>
     378:	81 e0       	ldi	r24, 0x01	; 1
     37a:	2d c0       	rjmp	.+90     	; 0x3d6 <twi_write+0x80>
     37c:	91 b1       	in	r25, 0x01	; 1
     37e:	98 7f       	andi	r25, 0xF8	; 248
     380:	98 30       	cpi	r25, 0x08	; 8
     382:	11 f0       	breq	.+4      	; 0x388 <twi_write+0x32>
     384:	82 e0       	ldi	r24, 0x02	; 2
     386:	27 c0       	rjmp	.+78     	; 0x3d6 <twi_write+0x80>
     388:	8e 7f       	andi	r24, 0xFE	; 254
     38a:	83 b9       	out	0x03, r24	; 3
     38c:	84 e8       	ldi	r24, 0x84	; 132
     38e:	86 bf       	out	0x36, r24	; 54
     390:	06 b6       	in	r0, 0x36	; 54
     392:	07 fc       	sbrc	r0, 7
     394:	07 c0       	rjmp	.+14     	; 0x3a4 <twi_write+0x4e>
     396:	80 91 96 05 	lds	r24, 0x0596	; 0x800596 <TWI_timeout>
     39a:	90 91 97 05 	lds	r25, 0x0597	; 0x800597 <TWI_timeout+0x1>
     39e:	89 2b       	or	r24, r25
     3a0:	b9 f7       	brne	.-18     	; 0x390 <twi_write+0x3a>
     3a2:	ea cf       	rjmp	.-44     	; 0x378 <twi_write+0x22>
     3a4:	81 b1       	in	r24, 0x01	; 1
     3a6:	88 7f       	andi	r24, 0xF8	; 248
     3a8:	88 31       	cpi	r24, 0x18	; 24
     3aa:	21 f4       	brne	.+8      	; 0x3b4 <twi_write+0x5e>
     3ac:	96 2f       	mov	r25, r22
     3ae:	fb 01       	movw	r30, r22
     3b0:	24 e8       	ldi	r18, 0x84	; 132
     3b2:	02 c0       	rjmp	.+4      	; 0x3b8 <twi_write+0x62>
     3b4:	83 e0       	ldi	r24, 0x03	; 3
     3b6:	0f c0       	rjmp	.+30     	; 0x3d6 <twi_write+0x80>
     3b8:	8e 2f       	mov	r24, r30
     3ba:	89 1b       	sub	r24, r25
     3bc:	84 17       	cp	r24, r20
     3be:	a8 f4       	brcc	.+42     	; 0x3ea <twi_write+0x94>
     3c0:	81 91       	ld	r24, Z+
     3c2:	83 b9       	out	0x03, r24	; 3
     3c4:	26 bf       	out	0x36, r18	; 54
     3c6:	06 b6       	in	r0, 0x36	; 54
     3c8:	07 fe       	sbrs	r0, 7
     3ca:	08 c0       	rjmp	.+16     	; 0x3dc <twi_write+0x86>
     3cc:	81 b1       	in	r24, 0x01	; 1
     3ce:	88 7f       	andi	r24, 0xF8	; 248
     3d0:	88 32       	cpi	r24, 0x28	; 40
     3d2:	91 f3       	breq	.-28     	; 0x3b8 <twi_write+0x62>
     3d4:	84 e0       	ldi	r24, 0x04	; 4
     3d6:	80 93 66 01 	sts	0x0166, r24	; 0x800166 <TWI_ERR>
     3da:	07 c0       	rjmp	.+14     	; 0x3ea <twi_write+0x94>
     3dc:	60 91 96 05 	lds	r22, 0x0596	; 0x800596 <TWI_timeout>
     3e0:	70 91 97 05 	lds	r23, 0x0597	; 0x800597 <TWI_timeout+0x1>
     3e4:	67 2b       	or	r22, r23
     3e6:	79 f7       	brne	.-34     	; 0x3c6 <twi_write+0x70>
     3e8:	c7 cf       	rjmp	.-114    	; 0x378 <twi_write+0x22>
     3ea:	84 e9       	ldi	r24, 0x94	; 148
     3ec:	86 bf       	out	0x36, r24	; 54
     3ee:	8f e8       	ldi	r24, 0x8F	; 143
     3f0:	91 e0       	ldi	r25, 0x01	; 1
     3f2:	01 97       	sbiw	r24, 0x01	; 1
     3f4:	f1 f7       	brne	.-4      	; 0x3f2 <twi_write+0x9c>
     3f6:	00 c0       	rjmp	.+0      	; 0x3f8 <twi_write+0xa2>
     3f8:	00 00       	nop
     3fa:	80 91 66 01 	lds	r24, 0x0166	; 0x800166 <TWI_ERR>
     3fe:	08 95       	ret

00000400 <twi_read>:
     400:	98 2f       	mov	r25, r24
     402:	28 ee       	ldi	r18, 0xE8	; 232
     404:	33 e0       	ldi	r19, 0x03	; 3
     406:	30 93 97 05 	sts	0x0597, r19	; 0x800597 <TWI_timeout+0x1>
     40a:	20 93 96 05 	sts	0x0596, r18	; 0x800596 <TWI_timeout>
     40e:	84 ea       	ldi	r24, 0xA4	; 164
     410:	86 bf       	out	0x36, r24	; 54
     412:	06 b6       	in	r0, 0x36	; 54
     414:	07 fc       	sbrc	r0, 7
     416:	08 c0       	rjmp	.+16     	; 0x428 <twi_read+0x28>
     418:	20 91 96 05 	lds	r18, 0x0596	; 0x800596 <TWI_timeout>
     41c:	30 91 97 05 	lds	r19, 0x0597	; 0x800597 <TWI_timeout+0x1>
     420:	23 2b       	or	r18, r19
     422:	b9 f7       	brne	.-18     	; 0x412 <twi_read+0x12>
     424:	81 e0       	ldi	r24, 0x01	; 1
     426:	34 c0       	rjmp	.+104    	; 0x490 <twi_read+0x90>
     428:	81 b1       	in	r24, 0x01	; 1
     42a:	88 7f       	andi	r24, 0xF8	; 248
     42c:	88 30       	cpi	r24, 0x08	; 8
     42e:	11 f0       	breq	.+4      	; 0x434 <twi_read+0x34>
     430:	82 e0       	ldi	r24, 0x02	; 2
     432:	2e c0       	rjmp	.+92     	; 0x490 <twi_read+0x90>
     434:	91 60       	ori	r25, 0x01	; 1
     436:	93 b9       	out	0x03, r25	; 3
     438:	84 e8       	ldi	r24, 0x84	; 132
     43a:	86 bf       	out	0x36, r24	; 54
     43c:	06 b6       	in	r0, 0x36	; 54
     43e:	07 fc       	sbrc	r0, 7
     440:	07 c0       	rjmp	.+14     	; 0x450 <twi_read+0x50>
     442:	80 91 96 05 	lds	r24, 0x0596	; 0x800596 <TWI_timeout>
     446:	90 91 97 05 	lds	r25, 0x0597	; 0x800597 <TWI_timeout+0x1>
     44a:	89 2b       	or	r24, r25
     44c:	b9 f7       	brne	.-18     	; 0x43c <twi_read+0x3c>
     44e:	ea cf       	rjmp	.-44     	; 0x424 <twi_read+0x24>
     450:	91 b1       	in	r25, 0x01	; 1
     452:	98 7f       	andi	r25, 0xF8	; 248
     454:	90 34       	cpi	r25, 0x40	; 64
     456:	31 f4       	brne	.+12     	; 0x464 <twi_read+0x64>
     458:	20 e0       	ldi	r18, 0x00	; 0
     45a:	50 e0       	ldi	r21, 0x00	; 0
     45c:	41 50       	subi	r20, 0x01	; 1
     45e:	51 09       	sbc	r21, r1
     460:	e4 ec       	ldi	r30, 0xC4	; 196
     462:	08 c0       	rjmp	.+16     	; 0x474 <twi_read+0x74>
     464:	83 e0       	ldi	r24, 0x03	; 3
     466:	14 c0       	rjmp	.+40     	; 0x490 <twi_read+0x90>
     468:	33 b1       	in	r19, 0x03	; 3
     46a:	db 01       	movw	r26, r22
     46c:	a8 0f       	add	r26, r24
     46e:	b9 1f       	adc	r27, r25
     470:	3c 93       	st	X, r19
     472:	2f 5f       	subi	r18, 0xFF	; 255
     474:	82 2f       	mov	r24, r18
     476:	90 e0       	ldi	r25, 0x00	; 0
     478:	84 17       	cp	r24, r20
     47a:	95 07       	cpc	r25, r21
     47c:	9c f4       	brge	.+38     	; 0x4a4 <twi_read+0xa4>
     47e:	e6 bf       	out	0x36, r30	; 54
     480:	06 b6       	in	r0, 0x36	; 54
     482:	07 fe       	sbrs	r0, 7
     484:	08 c0       	rjmp	.+16     	; 0x496 <twi_read+0x96>
     486:	31 b1       	in	r19, 0x01	; 1
     488:	38 7f       	andi	r19, 0xF8	; 248
     48a:	30 35       	cpi	r19, 0x50	; 80
     48c:	69 f3       	breq	.-38     	; 0x468 <twi_read+0x68>
     48e:	84 e0       	ldi	r24, 0x04	; 4
     490:	80 93 66 01 	sts	0x0166, r24	; 0x800166 <TWI_ERR>
     494:	1c c0       	rjmp	.+56     	; 0x4ce <twi_read+0xce>
     496:	a0 91 96 05 	lds	r26, 0x0596	; 0x800596 <TWI_timeout>
     49a:	b0 91 97 05 	lds	r27, 0x0597	; 0x800597 <TWI_timeout+0x1>
     49e:	ab 2b       	or	r26, r27
     4a0:	79 f7       	brne	.-34     	; 0x480 <twi_read+0x80>
     4a2:	c0 cf       	rjmp	.-128    	; 0x424 <twi_read+0x24>
     4a4:	24 e8       	ldi	r18, 0x84	; 132
     4a6:	26 bf       	out	0x36, r18	; 54
     4a8:	06 b6       	in	r0, 0x36	; 54
     4aa:	07 fc       	sbrc	r0, 7
     4ac:	07 c0       	rjmp	.+14     	; 0x4bc <twi_read+0xbc>
     4ae:	20 91 96 05 	lds	r18, 0x0596	; 0x800596 <TWI_timeout>
     4b2:	30 91 97 05 	lds	r19, 0x0597	; 0x800597 <TWI_timeout+0x1>
     4b6:	23 2b       	or	r18, r19
     4b8:	b9 f7       	brne	.-18     	; 0x4a8 <twi_read+0xa8>
     4ba:	b4 cf       	rjmp	.-152    	; 0x424 <twi_read+0x24>
     4bc:	21 b1       	in	r18, 0x01	; 1
     4be:	28 7f       	andi	r18, 0xF8	; 248
     4c0:	28 35       	cpi	r18, 0x58	; 88
     4c2:	29 f7       	brne	.-54     	; 0x48e <twi_read+0x8e>
     4c4:	23 b1       	in	r18, 0x03	; 3
     4c6:	fb 01       	movw	r30, r22
     4c8:	e8 0f       	add	r30, r24
     4ca:	f9 1f       	adc	r31, r25
     4cc:	20 83       	st	Z, r18
     4ce:	84 ed       	ldi	r24, 0xD4	; 212
     4d0:	86 bf       	out	0x36, r24	; 54
     4d2:	8f e8       	ldi	r24, 0x8F	; 143
     4d4:	91 e0       	ldi	r25, 0x01	; 1
     4d6:	01 97       	sbiw	r24, 0x01	; 1
     4d8:	f1 f7       	brne	.-4      	; 0x4d6 <twi_read+0xd6>
     4da:	00 c0       	rjmp	.+0      	; 0x4dc <twi_read+0xdc>
     4dc:	00 00       	nop
     4de:	80 91 66 01 	lds	r24, 0x0166	; 0x800166 <TWI_ERR>
     4e2:	08 95       	ret

000004e4 <rtc_set>:
     4e4:	cf 93       	push	r28
     4e6:	df 93       	push	r29
     4e8:	cd b7       	in	r28, 0x3d	; 61
     4ea:	de b7       	in	r29, 0x3e	; 62
     4ec:	2a 97       	sbiw	r28, 0x0a	; 10
     4ee:	0f b6       	in	r0, 0x3f	; 63
     4f0:	f8 94       	cli
     4f2:	de bf       	out	0x3e, r29	; 62
     4f4:	0f be       	out	0x3f, r0	; 63
     4f6:	cd bf       	out	0x3d, r28	; 61
     4f8:	fc 01       	movw	r30, r24
     4fa:	19 82       	std	Y+1, r1	; 0x01
     4fc:	85 81       	ldd	r24, Z+5	; 0x05
     4fe:	2a e0       	ldi	r18, 0x0A	; 10
     500:	62 2f       	mov	r22, r18
     502:	0e 94 ba 1d 	call	0x3b74	; 0x3b74 <__udivmodqi4>
     506:	39 2f       	mov	r19, r25
     508:	40 e1       	ldi	r20, 0x10	; 16
     50a:	84 9f       	mul	r24, r20
     50c:	c0 01       	movw	r24, r0
     50e:	11 24       	eor	r1, r1
     510:	83 2b       	or	r24, r19
     512:	8f 77       	andi	r24, 0x7F	; 127
     514:	8a 83       	std	Y+2, r24	; 0x02
     516:	84 81       	ldd	r24, Z+4	; 0x04
     518:	0e 94 ba 1d 	call	0x3b74	; 0x3b74 <__udivmodqi4>
     51c:	39 2f       	mov	r19, r25
     51e:	40 e1       	ldi	r20, 0x10	; 16
     520:	84 9f       	mul	r24, r20
     522:	c0 01       	movw	r24, r0
     524:	11 24       	eor	r1, r1
     526:	83 2b       	or	r24, r19
     528:	8b 83       	std	Y+3, r24	; 0x03
     52a:	83 81       	ldd	r24, Z+3	; 0x03
     52c:	0e 94 ba 1d 	call	0x3b74	; 0x3b74 <__udivmodqi4>
     530:	39 2f       	mov	r19, r25
     532:	40 e1       	ldi	r20, 0x10	; 16
     534:	84 9f       	mul	r24, r20
     536:	c0 01       	movw	r24, r0
     538:	11 24       	eor	r1, r1
     53a:	83 2b       	or	r24, r19
     53c:	8c 83       	std	Y+4, r24	; 0x04
     53e:	1d 82       	std	Y+5, r1	; 0x05
     540:	82 81       	ldd	r24, Z+2	; 0x02
     542:	0e 94 ba 1d 	call	0x3b74	; 0x3b74 <__udivmodqi4>
     546:	39 2f       	mov	r19, r25
     548:	40 e1       	ldi	r20, 0x10	; 16
     54a:	84 9f       	mul	r24, r20
     54c:	c0 01       	movw	r24, r0
     54e:	11 24       	eor	r1, r1
     550:	83 2b       	or	r24, r19
     552:	8e 83       	std	Y+6, r24	; 0x06
     554:	81 81       	ldd	r24, Z+1	; 0x01
     556:	0e 94 ba 1d 	call	0x3b74	; 0x3b74 <__udivmodqi4>
     55a:	39 2f       	mov	r19, r25
     55c:	40 e1       	ldi	r20, 0x10	; 16
     55e:	84 9f       	mul	r24, r20
     560:	c0 01       	movw	r24, r0
     562:	11 24       	eor	r1, r1
     564:	83 2b       	or	r24, r19
     566:	8f 83       	std	Y+7, r24	; 0x07
     568:	80 81       	ld	r24, Z
     56a:	0e 94 ba 1d 	call	0x3b74	; 0x3b74 <__udivmodqi4>
     56e:	29 2f       	mov	r18, r25
     570:	30 e1       	ldi	r19, 0x10	; 16
     572:	83 9f       	mul	r24, r19
     574:	c0 01       	movw	r24, r0
     576:	11 24       	eor	r1, r1
     578:	82 2b       	or	r24, r18
     57a:	88 87       	std	Y+8, r24	; 0x08
     57c:	19 86       	std	Y+9, r1	; 0x09
     57e:	8a ea       	ldi	r24, 0xAA	; 170
     580:	8a 87       	std	Y+10, r24	; 0x0a
     582:	4a e0       	ldi	r20, 0x0A	; 10
     584:	be 01       	movw	r22, r28
     586:	6f 5f       	subi	r22, 0xFF	; 255
     588:	7f 4f       	sbci	r23, 0xFF	; 255
     58a:	80 ed       	ldi	r24, 0xD0	; 208
     58c:	0e 94 ab 01 	call	0x356	; 0x356 <twi_write>
     590:	91 e0       	ldi	r25, 0x01	; 1
     592:	81 11       	cpse	r24, r1
     594:	01 c0       	rjmp	.+2      	; 0x598 <rtc_set+0xb4>
     596:	90 e0       	ldi	r25, 0x00	; 0
     598:	89 2f       	mov	r24, r25
     59a:	81 95       	neg	r24
     59c:	2a 96       	adiw	r28, 0x0a	; 10
     59e:	0f b6       	in	r0, 0x3f	; 63
     5a0:	f8 94       	cli
     5a2:	de bf       	out	0x3e, r29	; 62
     5a4:	0f be       	out	0x3f, r0	; 63
     5a6:	cd bf       	out	0x3d, r28	; 61
     5a8:	df 91       	pop	r29
     5aa:	cf 91       	pop	r28
     5ac:	08 95       	ret

000005ae <rtc_get>:
     5ae:	ef 92       	push	r14
     5b0:	ff 92       	push	r15
     5b2:	0f 93       	push	r16
     5b4:	1f 93       	push	r17
     5b6:	cf 93       	push	r28
     5b8:	df 93       	push	r29
     5ba:	cd b7       	in	r28, 0x3d	; 61
     5bc:	de b7       	in	r29, 0x3e	; 62
     5be:	28 97       	sbiw	r28, 0x08	; 8
     5c0:	0f b6       	in	r0, 0x3f	; 63
     5c2:	f8 94       	cli
     5c4:	de bf       	out	0x3e, r29	; 62
     5c6:	0f be       	out	0x3f, r0	; 63
     5c8:	cd bf       	out	0x3d, r28	; 61
     5ca:	8c 01       	movw	r16, r24
     5cc:	ce 01       	movw	r24, r28
     5ce:	01 96       	adiw	r24, 0x01	; 1
     5d0:	7c 01       	movw	r14, r24
     5d2:	87 e0       	ldi	r24, 0x07	; 7
     5d4:	f7 01       	movw	r30, r14
     5d6:	11 92       	st	Z+, r1
     5d8:	8a 95       	dec	r24
     5da:	e9 f7       	brne	.-6      	; 0x5d6 <rtc_get+0x28>
     5dc:	18 86       	std	Y+8, r1	; 0x08
     5de:	41 e0       	ldi	r20, 0x01	; 1
     5e0:	be 01       	movw	r22, r28
     5e2:	68 5f       	subi	r22, 0xF8	; 248
     5e4:	7f 4f       	sbci	r23, 0xFF	; 255
     5e6:	80 ed       	ldi	r24, 0xD0	; 208
     5e8:	0e 94 ab 01 	call	0x356	; 0x356 <twi_write>
     5ec:	47 e0       	ldi	r20, 0x07	; 7
     5ee:	b7 01       	movw	r22, r14
     5f0:	80 ed       	ldi	r24, 0xD0	; 208
     5f2:	0e 94 00 02 	call	0x400	; 0x400 <twi_read>
     5f6:	81 11       	cpse	r24, r1
     5f8:	44 c0       	rjmp	.+136    	; 0x682 <rtc_get+0xd4>
     5fa:	89 81       	ldd	r24, Y+1	; 0x01
     5fc:	98 2f       	mov	r25, r24
     5fe:	92 95       	swap	r25
     600:	9f 70       	andi	r25, 0x0F	; 15
     602:	8f 70       	andi	r24, 0x0F	; 15
     604:	fa e0       	ldi	r31, 0x0A	; 10
     606:	9f 9f       	mul	r25, r31
     608:	80 0d       	add	r24, r0
     60a:	11 24       	eor	r1, r1
     60c:	f8 01       	movw	r30, r16
     60e:	85 83       	std	Z+5, r24	; 0x05
     610:	8a 81       	ldd	r24, Y+2	; 0x02
     612:	98 2f       	mov	r25, r24
     614:	92 95       	swap	r25
     616:	9f 70       	andi	r25, 0x0F	; 15
     618:	8f 70       	andi	r24, 0x0F	; 15
     61a:	fa e0       	ldi	r31, 0x0A	; 10
     61c:	9f 9f       	mul	r25, r31
     61e:	80 0d       	add	r24, r0
     620:	11 24       	eor	r1, r1
     622:	f8 01       	movw	r30, r16
     624:	84 83       	std	Z+4, r24	; 0x04
     626:	8b 81       	ldd	r24, Y+3	; 0x03
     628:	98 2f       	mov	r25, r24
     62a:	92 95       	swap	r25
     62c:	9f 70       	andi	r25, 0x0F	; 15
     62e:	8f 70       	andi	r24, 0x0F	; 15
     630:	fa e0       	ldi	r31, 0x0A	; 10
     632:	9f 9f       	mul	r25, r31
     634:	80 0d       	add	r24, r0
     636:	11 24       	eor	r1, r1
     638:	f8 01       	movw	r30, r16
     63a:	83 83       	std	Z+3, r24	; 0x03
     63c:	8d 81       	ldd	r24, Y+5	; 0x05
     63e:	98 2f       	mov	r25, r24
     640:	92 95       	swap	r25
     642:	9f 70       	andi	r25, 0x0F	; 15
     644:	8f 70       	andi	r24, 0x0F	; 15
     646:	fa e0       	ldi	r31, 0x0A	; 10
     648:	9f 9f       	mul	r25, r31
     64a:	80 0d       	add	r24, r0
     64c:	11 24       	eor	r1, r1
     64e:	f8 01       	movw	r30, r16
     650:	82 83       	std	Z+2, r24	; 0x02
     652:	8e 81       	ldd	r24, Y+6	; 0x06
     654:	98 2f       	mov	r25, r24
     656:	92 95       	swap	r25
     658:	9f 70       	andi	r25, 0x0F	; 15
     65a:	8f 70       	andi	r24, 0x0F	; 15
     65c:	fa e0       	ldi	r31, 0x0A	; 10
     65e:	9f 9f       	mul	r25, r31
     660:	80 0d       	add	r24, r0
     662:	11 24       	eor	r1, r1
     664:	f8 01       	movw	r30, r16
     666:	81 83       	std	Z+1, r24	; 0x01
     668:	8f 81       	ldd	r24, Y+7	; 0x07
     66a:	98 2f       	mov	r25, r24
     66c:	92 95       	swap	r25
     66e:	9f 70       	andi	r25, 0x0F	; 15
     670:	8f 70       	andi	r24, 0x0F	; 15
     672:	fa e0       	ldi	r31, 0x0A	; 10
     674:	9f 9f       	mul	r25, r31
     676:	80 0d       	add	r24, r0
     678:	11 24       	eor	r1, r1
     67a:	f8 01       	movw	r30, r16
     67c:	80 83       	st	Z, r24
     67e:	80 e0       	ldi	r24, 0x00	; 0
     680:	01 c0       	rjmp	.+2      	; 0x684 <rtc_get+0xd6>
     682:	8f ef       	ldi	r24, 0xFF	; 255
     684:	28 96       	adiw	r28, 0x08	; 8
     686:	0f b6       	in	r0, 0x3f	; 63
     688:	f8 94       	cli
     68a:	de bf       	out	0x3e, r29	; 62
     68c:	0f be       	out	0x3f, r0	; 63
     68e:	cd bf       	out	0x3d, r28	; 61
     690:	df 91       	pop	r29
     692:	cf 91       	pop	r28
     694:	1f 91       	pop	r17
     696:	0f 91       	pop	r16
     698:	ff 90       	pop	r15
     69a:	ef 90       	pop	r14
     69c:	08 95       	ret

0000069e <rtc_check>:
     69e:	cf 93       	push	r28
     6a0:	df 93       	push	r29
     6a2:	00 d0       	rcall	.+0      	; 0x6a4 <rtc_check+0x6>
     6a4:	cd b7       	in	r28, 0x3d	; 61
     6a6:	de b7       	in	r29, 0x3e	; 62
     6a8:	1a 82       	std	Y+2, r1	; 0x02
     6aa:	88 e0       	ldi	r24, 0x08	; 8
     6ac:	89 83       	std	Y+1, r24	; 0x01
     6ae:	41 e0       	ldi	r20, 0x01	; 1
     6b0:	be 01       	movw	r22, r28
     6b2:	6f 5f       	subi	r22, 0xFF	; 255
     6b4:	7f 4f       	sbci	r23, 0xFF	; 255
     6b6:	80 ed       	ldi	r24, 0xD0	; 208
     6b8:	0e 94 ab 01 	call	0x356	; 0x356 <twi_write>
     6bc:	41 e0       	ldi	r20, 0x01	; 1
     6be:	be 01       	movw	r22, r28
     6c0:	6e 5f       	subi	r22, 0xFE	; 254
     6c2:	7f 4f       	sbci	r23, 0xFF	; 255
     6c4:	80 ed       	ldi	r24, 0xD0	; 208
     6c6:	0e 94 00 02 	call	0x400	; 0x400 <twi_read>
     6ca:	81 11       	cpse	r24, r1
     6cc:	07 c0       	rjmp	.+14     	; 0x6dc <rtc_check+0x3e>
     6ce:	81 e0       	ldi	r24, 0x01	; 1
     6d0:	9a 81       	ldd	r25, Y+2	; 0x02
     6d2:	9a 3a       	cpi	r25, 0xAA	; 170
     6d4:	09 f4       	brne	.+2      	; 0x6d8 <rtc_check+0x3a>
     6d6:	80 e0       	ldi	r24, 0x00	; 0
     6d8:	81 95       	neg	r24
     6da:	01 c0       	rjmp	.+2      	; 0x6de <rtc_check+0x40>
     6dc:	8f ef       	ldi	r24, 0xFF	; 255
     6de:	0f 90       	pop	r0
     6e0:	0f 90       	pop	r0
     6e2:	df 91       	pop	r29
     6e4:	cf 91       	pop	r28
     6e6:	08 95       	ret

000006e8 <LCD_sendCmd>:
     6e8:	cf 92       	push	r12
     6ea:	df 92       	push	r13
     6ec:	ef 92       	push	r14
     6ee:	ff 92       	push	r15
     6f0:	0f 93       	push	r16
     6f2:	1f 93       	push	r17
     6f4:	cf 93       	push	r28
     6f6:	c8 2f       	mov	r28, r24
     6f8:	88 b3       	in	r24, 0x18	; 24
     6fa:	c6 fb       	bst	r28, 6
     6fc:	66 27       	eor	r22, r22
     6fe:	60 f9       	bld	r22, 0
     700:	70 e0       	ldi	r23, 0x00	; 0
     702:	66 0f       	add	r22, r22
     704:	77 1f       	adc	r23, r23
     706:	9c 2f       	mov	r25, r28
     708:	99 1f       	adc	r25, r25
     70a:	99 27       	eor	r25, r25
     70c:	99 1f       	adc	r25, r25
     70e:	89 2b       	or	r24, r25
     710:	68 2b       	or	r22, r24
     712:	c5 fb       	bst	r28, 5
     714:	44 27       	eor	r20, r20
     716:	40 f9       	bld	r20, 0
     718:	50 e0       	ldi	r21, 0x00	; 0
     71a:	44 0f       	add	r20, r20
     71c:	55 1f       	adc	r21, r21
     71e:	44 0f       	add	r20, r20
     720:	55 1f       	adc	r21, r21
     722:	46 2b       	or	r20, r22
     724:	c4 fb       	bst	r28, 4
     726:	22 27       	eor	r18, r18
     728:	20 f9       	bld	r18, 0
     72a:	30 e0       	ldi	r19, 0x00	; 0
     72c:	53 e0       	ldi	r21, 0x03	; 3
     72e:	22 0f       	add	r18, r18
     730:	33 1f       	adc	r19, r19
     732:	5a 95       	dec	r21
     734:	e1 f7       	brne	.-8      	; 0x72e <LCD_sendCmd+0x46>
     736:	24 2b       	or	r18, r20
     738:	28 bb       	out	0x18, r18	; 24
     73a:	0e 94 95 01 	call	0x32a	; 0x32a <LCD_strob>
     73e:	88 b3       	in	r24, 0x18	; 24
     740:	80 7f       	andi	r24, 0xF0	; 240
     742:	88 bb       	out	0x18, r24	; 24
     744:	c3 fb       	bst	r28, 3
     746:	88 27       	eor	r24, r24
     748:	80 f9       	bld	r24, 0
     74a:	c0 fb       	bst	r28, 0
     74c:	cc 24       	eor	r12, r12
     74e:	c0 f8       	bld	r12, 0
     750:	d1 2c       	mov	r13, r1
     752:	63 e0       	ldi	r22, 0x03	; 3
     754:	cc 0c       	add	r12, r12
     756:	dd 1c       	adc	r13, r13
     758:	6a 95       	dec	r22
     75a:	e1 f7       	brne	.-8      	; 0x754 <LCD_sendCmd+0x6c>
     75c:	c8 2a       	or	r12, r24
     75e:	c2 fb       	bst	r28, 2
     760:	ee 24       	eor	r14, r14
     762:	e0 f8       	bld	r14, 0
     764:	f1 2c       	mov	r15, r1
     766:	ee 0c       	add	r14, r14
     768:	ff 1c       	adc	r15, r15
     76a:	ec 28       	or	r14, r12
     76c:	c1 fb       	bst	r28, 1
     76e:	00 27       	eor	r16, r16
     770:	00 f9       	bld	r16, 0
     772:	10 e0       	ldi	r17, 0x00	; 0
     774:	00 0f       	add	r16, r16
     776:	11 1f       	adc	r17, r17
     778:	00 0f       	add	r16, r16
     77a:	11 1f       	adc	r17, r17
     77c:	0e 29       	or	r16, r14
     77e:	08 bb       	out	0x18, r16	; 24
     780:	0e 94 95 01 	call	0x32a	; 0x32a <LCD_strob>
     784:	85 b3       	in	r24, 0x15	; 21
     786:	83 7e       	andi	r24, 0xE3	; 227
     788:	85 bb       	out	0x15, r24	; 21
     78a:	88 b3       	in	r24, 0x18	; 24
     78c:	80 7f       	andi	r24, 0xF0	; 240
     78e:	88 bb       	out	0x18, r24	; 24
     790:	cf 91       	pop	r28
     792:	1f 91       	pop	r17
     794:	0f 91       	pop	r16
     796:	ff 90       	pop	r15
     798:	ef 90       	pop	r14
     79a:	df 90       	pop	r13
     79c:	cf 90       	pop	r12
     79e:	08 95       	ret

000007a0 <LCD_init>:
     7a0:	2f ef       	ldi	r18, 0xFF	; 255
     7a2:	89 ef       	ldi	r24, 0xF9	; 249
     7a4:	90 e0       	ldi	r25, 0x00	; 0
     7a6:	21 50       	subi	r18, 0x01	; 1
     7a8:	80 40       	sbci	r24, 0x00	; 0
     7aa:	90 40       	sbci	r25, 0x00	; 0
     7ac:	e1 f7       	brne	.-8      	; 0x7a6 <LCD_init+0x6>
     7ae:	00 c0       	rjmp	.+0      	; 0x7b0 <LCD_init+0x10>
     7b0:	00 00       	nop
     7b2:	88 b3       	in	r24, 0x18	; 24
     7b4:	80 7f       	andi	r24, 0xF0	; 240
     7b6:	88 bb       	out	0x18, r24	; 24
     7b8:	87 b3       	in	r24, 0x17	; 23
     7ba:	8f 60       	ori	r24, 0x0F	; 15
     7bc:	87 bb       	out	0x17, r24	; 23
     7be:	85 b3       	in	r24, 0x15	; 21
     7c0:	83 7e       	andi	r24, 0xE3	; 227
     7c2:	85 bb       	out	0x15, r24	; 21
     7c4:	84 b3       	in	r24, 0x14	; 20
     7c6:	8c 61       	ori	r24, 0x1C	; 28
     7c8:	84 bb       	out	0x14, r24	; 20
     7ca:	88 b3       	in	r24, 0x18	; 24
     7cc:	8c 60       	ori	r24, 0x0C	; 12
     7ce:	88 bb       	out	0x18, r24	; 24
     7d0:	0e 94 95 01 	call	0x32a	; 0x32a <LCD_strob>
     7d4:	8f e1       	ldi	r24, 0x1F	; 31
     7d6:	9e e4       	ldi	r25, 0x4E	; 78
     7d8:	01 97       	sbiw	r24, 0x01	; 1
     7da:	f1 f7       	brne	.-4      	; 0x7d8 <LCD_init+0x38>
     7dc:	00 c0       	rjmp	.+0      	; 0x7de <LCD_init+0x3e>
     7de:	00 00       	nop
     7e0:	0e 94 95 01 	call	0x32a	; 0x32a <LCD_strob>
     7e4:	8f e1       	ldi	r24, 0x1F	; 31
     7e6:	9e e4       	ldi	r25, 0x4E	; 78
     7e8:	01 97       	sbiw	r24, 0x01	; 1
     7ea:	f1 f7       	brne	.-4      	; 0x7e8 <LCD_init+0x48>
     7ec:	00 c0       	rjmp	.+0      	; 0x7ee <LCD_init+0x4e>
     7ee:	00 00       	nop
     7f0:	0e 94 95 01 	call	0x32a	; 0x32a <LCD_strob>
     7f4:	c3 98       	cbi	0x18, 3	; 24
     7f6:	0e 94 95 01 	call	0x32a	; 0x32a <LCD_strob>
     7fa:	8f e3       	ldi	r24, 0x3F	; 63
     7fc:	9f e1       	ldi	r25, 0x1F	; 31
     7fe:	01 97       	sbiw	r24, 0x01	; 1
     800:	f1 f7       	brne	.-4      	; 0x7fe <LCD_init+0x5e>
     802:	00 c0       	rjmp	.+0      	; 0x804 <__DATA_REGION_LENGTH__+0x4>
     804:	00 00       	nop
     806:	88 e2       	ldi	r24, 0x28	; 40
     808:	0e 94 74 03 	call	0x6e8	; 0x6e8 <LCD_sendCmd>
     80c:	88 e0       	ldi	r24, 0x08	; 8
     80e:	0e 94 74 03 	call	0x6e8	; 0x6e8 <LCD_sendCmd>
     812:	81 e0       	ldi	r24, 0x01	; 1
     814:	0e 94 74 03 	call	0x6e8	; 0x6e8 <LCD_sendCmd>
     818:	86 e0       	ldi	r24, 0x06	; 6
     81a:	0e 94 74 03 	call	0x6e8	; 0x6e8 <LCD_sendCmd>
     81e:	88 b3       	in	r24, 0x18	; 24
     820:	80 7f       	andi	r24, 0xF0	; 240
     822:	88 bb       	out	0x18, r24	; 24
     824:	85 b3       	in	r24, 0x15	; 21
     826:	83 7e       	andi	r24, 0xE3	; 227
     828:	85 bb       	out	0x15, r24	; 21
     82a:	08 95       	ret

0000082c <LCD_cursorOn>:
     82c:	8e e0       	ldi	r24, 0x0E	; 14
     82e:	0c 94 74 03 	jmp	0x6e8	; 0x6e8 <LCD_sendCmd>

00000832 <LCD_cursorBlink>:
     832:	8f e0       	ldi	r24, 0x0F	; 15
     834:	0c 94 74 03 	jmp	0x6e8	; 0x6e8 <LCD_sendCmd>

00000838 <LCD_visible>:
     838:	8c e0       	ldi	r24, 0x0C	; 12
     83a:	0c 94 74 03 	jmp	0x6e8	; 0x6e8 <LCD_sendCmd>

0000083e <LCD_cursorOff>:
     83e:	0c 94 1c 04 	jmp	0x838	; 0x838 <LCD_visible>

00000842 <LCD_clr>:
     842:	81 e0       	ldi	r24, 0x01	; 1
     844:	0e 94 74 03 	call	0x6e8	; 0x6e8 <LCD_sendCmd>
     848:	10 92 65 01 	sts	0x0165, r1	; 0x800165 <x>
     84c:	10 92 64 01 	sts	0x0164, r1	; 0x800164 <y>
     850:	8f e1       	ldi	r24, 0x1F	; 31
     852:	9e e4       	ldi	r25, 0x4E	; 78
     854:	01 97       	sbiw	r24, 0x01	; 1
     856:	f1 f7       	brne	.-4      	; 0x854 <LCD_clr+0x12>
     858:	00 c0       	rjmp	.+0      	; 0x85a <LCD_clr+0x18>
     85a:	00 00       	nop
     85c:	08 95       	ret

0000085e <LCD_gotoXY>:
     85e:	80 93 65 01 	sts	0x0165, r24	; 0x800165 <x>
     862:	60 93 64 01 	sts	0x0164, r22	; 0x800164 <y>
     866:	61 30       	cpi	r22, 0x01	; 1
     868:	39 f0       	breq	.+14     	; 0x878 <__stack+0x19>
     86a:	48 f0       	brcs	.+18     	; 0x87e <__stack+0x1f>
     86c:	62 30       	cpi	r22, 0x02	; 2
     86e:	31 f0       	breq	.+12     	; 0x87c <__stack+0x1d>
     870:	63 30       	cpi	r22, 0x03	; 3
     872:	29 f4       	brne	.+10     	; 0x87e <__stack+0x1f>
     874:	8c 5a       	subi	r24, 0xAC	; 172
     876:	03 c0       	rjmp	.+6      	; 0x87e <__stack+0x1f>
     878:	80 5c       	subi	r24, 0xC0	; 192
     87a:	01 c0       	rjmp	.+2      	; 0x87e <__stack+0x1f>
     87c:	8c 5e       	subi	r24, 0xEC	; 236
     87e:	80 68       	ori	r24, 0x80	; 128
     880:	0c 94 74 03 	jmp	0x6e8	; 0x6e8 <LCD_sendCmd>

00000884 <LCD_putchar>:
     884:	cf 92       	push	r12
     886:	df 92       	push	r13
     888:	ef 92       	push	r14
     88a:	ff 92       	push	r15
     88c:	0f 93       	push	r16
     88e:	1f 93       	push	r17
     890:	cf 93       	push	r28
     892:	df 93       	push	r29
     894:	c8 2f       	mov	r28, r24
     896:	80 3c       	cpi	r24, 0xC0	; 192
     898:	28 f0       	brcs	.+10     	; 0x8a4 <LCD_putchar+0x20>
     89a:	d0 e0       	ldi	r29, 0x00	; 0
     89c:	fe 01       	movw	r30, r28
     89e:	ed 55       	subi	r30, 0x5D	; 93
     8a0:	fe 4f       	sbci	r31, 0xFE	; 254
     8a2:	c4 91       	lpm	r28, Z
     8a4:	aa 9a       	sbi	0x15, 2	; 21
     8a6:	88 b3       	in	r24, 0x18	; 24
     8a8:	c6 fb       	bst	r28, 6
     8aa:	66 27       	eor	r22, r22
     8ac:	60 f9       	bld	r22, 0
     8ae:	70 e0       	ldi	r23, 0x00	; 0
     8b0:	66 0f       	add	r22, r22
     8b2:	77 1f       	adc	r23, r23
     8b4:	9c 2f       	mov	r25, r28
     8b6:	99 1f       	adc	r25, r25
     8b8:	99 27       	eor	r25, r25
     8ba:	99 1f       	adc	r25, r25
     8bc:	89 2b       	or	r24, r25
     8be:	68 2b       	or	r22, r24
     8c0:	c5 fb       	bst	r28, 5
     8c2:	44 27       	eor	r20, r20
     8c4:	40 f9       	bld	r20, 0
     8c6:	50 e0       	ldi	r21, 0x00	; 0
     8c8:	44 0f       	add	r20, r20
     8ca:	55 1f       	adc	r21, r21
     8cc:	44 0f       	add	r20, r20
     8ce:	55 1f       	adc	r21, r21
     8d0:	46 2b       	or	r20, r22
     8d2:	c4 fb       	bst	r28, 4
     8d4:	22 27       	eor	r18, r18
     8d6:	20 f9       	bld	r18, 0
     8d8:	30 e0       	ldi	r19, 0x00	; 0
     8da:	53 e0       	ldi	r21, 0x03	; 3
     8dc:	22 0f       	add	r18, r18
     8de:	33 1f       	adc	r19, r19
     8e0:	5a 95       	dec	r21
     8e2:	e1 f7       	brne	.-8      	; 0x8dc <LCD_putchar+0x58>
     8e4:	24 2b       	or	r18, r20
     8e6:	28 bb       	out	0x18, r18	; 24
     8e8:	0e 94 95 01 	call	0x32a	; 0x32a <LCD_strob>
     8ec:	88 b3       	in	r24, 0x18	; 24
     8ee:	80 7f       	andi	r24, 0xF0	; 240
     8f0:	88 bb       	out	0x18, r24	; 24
     8f2:	88 b3       	in	r24, 0x18	; 24
     8f4:	c3 fb       	bst	r28, 3
     8f6:	99 27       	eor	r25, r25
     8f8:	90 f9       	bld	r25, 0
     8fa:	89 2b       	or	r24, r25
     8fc:	c0 fb       	bst	r28, 0
     8fe:	cc 24       	eor	r12, r12
     900:	c0 f8       	bld	r12, 0
     902:	d1 2c       	mov	r13, r1
     904:	63 e0       	ldi	r22, 0x03	; 3
     906:	cc 0c       	add	r12, r12
     908:	dd 1c       	adc	r13, r13
     90a:	6a 95       	dec	r22
     90c:	e1 f7       	brne	.-8      	; 0x906 <LCD_putchar+0x82>
     90e:	c8 2a       	or	r12, r24
     910:	c2 fb       	bst	r28, 2
     912:	ee 24       	eor	r14, r14
     914:	e0 f8       	bld	r14, 0
     916:	f1 2c       	mov	r15, r1
     918:	ee 0c       	add	r14, r14
     91a:	ff 1c       	adc	r15, r15
     91c:	ec 28       	or	r14, r12
     91e:	c1 fb       	bst	r28, 1
     920:	00 27       	eor	r16, r16
     922:	00 f9       	bld	r16, 0
     924:	10 e0       	ldi	r17, 0x00	; 0
     926:	00 0f       	add	r16, r16
     928:	11 1f       	adc	r17, r17
     92a:	00 0f       	add	r16, r16
     92c:	11 1f       	adc	r17, r17
     92e:	0e 29       	or	r16, r14
     930:	08 bb       	out	0x18, r16	; 24
     932:	0e 94 95 01 	call	0x32a	; 0x32a <LCD_strob>
     936:	85 b3       	in	r24, 0x15	; 21
     938:	83 7e       	andi	r24, 0xE3	; 227
     93a:	85 bb       	out	0x15, r24	; 21
     93c:	88 b3       	in	r24, 0x18	; 24
     93e:	80 7f       	andi	r24, 0xF0	; 240
     940:	88 bb       	out	0x18, r24	; 24
     942:	80 91 65 01 	lds	r24, 0x0165	; 0x800165 <x>
     946:	8f 5f       	subi	r24, 0xFF	; 255
     948:	84 31       	cpi	r24, 0x14	; 20
     94a:	58 f4       	brcc	.+22     	; 0x962 <LCD_putchar+0xde>
     94c:	80 93 65 01 	sts	0x0165, r24	; 0x800165 <x>
     950:	df 91       	pop	r29
     952:	cf 91       	pop	r28
     954:	1f 91       	pop	r17
     956:	0f 91       	pop	r16
     958:	ff 90       	pop	r15
     95a:	ef 90       	pop	r14
     95c:	df 90       	pop	r13
     95e:	cf 90       	pop	r12
     960:	08 95       	ret
     962:	10 92 65 01 	sts	0x0165, r1	; 0x800165 <x>
     966:	80 91 64 01 	lds	r24, 0x0164	; 0x800164 <y>
     96a:	8f 5f       	subi	r24, 0xFF	; 255
     96c:	80 93 64 01 	sts	0x0164, r24	; 0x800164 <y>
     970:	81 30       	cpi	r24, 0x01	; 1
     972:	39 f0       	breq	.+14     	; 0x982 <LCD_putchar+0xfe>
     974:	50 f0       	brcs	.+20     	; 0x98a <LCD_putchar+0x106>
     976:	82 30       	cpi	r24, 0x02	; 2
     978:	31 f0       	breq	.+12     	; 0x986 <LCD_putchar+0x102>
     97a:	83 30       	cpi	r24, 0x03	; 3
     97c:	31 f4       	brne	.+12     	; 0x98a <LCD_putchar+0x106>
     97e:	84 ed       	ldi	r24, 0xD4	; 212
     980:	05 c0       	rjmp	.+10     	; 0x98c <LCD_putchar+0x108>
     982:	80 ec       	ldi	r24, 0xC0	; 192
     984:	03 c0       	rjmp	.+6      	; 0x98c <LCD_putchar+0x108>
     986:	84 e9       	ldi	r24, 0x94	; 148
     988:	01 c0       	rjmp	.+2      	; 0x98c <LCD_putchar+0x108>
     98a:	80 e8       	ldi	r24, 0x80	; 128
     98c:	df 91       	pop	r29
     98e:	cf 91       	pop	r28
     990:	1f 91       	pop	r17
     992:	0f 91       	pop	r16
     994:	ff 90       	pop	r15
     996:	ef 90       	pop	r14
     998:	df 90       	pop	r13
     99a:	cf 90       	pop	r12
     99c:	0c 94 74 03 	jmp	0x6e8	; 0x6e8 <LCD_sendCmd>

000009a0 <LCD_puts>:
     9a0:	0f 93       	push	r16
     9a2:	1f 93       	push	r17
     9a4:	cf 93       	push	r28
     9a6:	df 93       	push	r29
     9a8:	d6 2f       	mov	r29, r22
     9aa:	8c 01       	movw	r16, r24
     9ac:	c0 e0       	ldi	r28, 0x00	; 0
     9ae:	cd 17       	cp	r28, r29
     9b0:	81 f0       	breq	.+32     	; 0x9d2 <LCD_puts+0x32>
     9b2:	f8 01       	movw	r30, r16
     9b4:	81 91       	ld	r24, Z+
     9b6:	8f 01       	movw	r16, r30
     9b8:	81 11       	cpse	r24, r1
     9ba:	07 c0       	rjmp	.+14     	; 0x9ca <LCD_puts+0x2a>
     9bc:	80 e2       	ldi	r24, 0x20	; 32
     9be:	0e 94 42 04 	call	0x884	; 0x884 <LCD_putchar>
     9c2:	cf 5f       	subi	r28, 0xFF	; 255
     9c4:	cd 17       	cp	r28, r29
     9c6:	d0 f3       	brcs	.-12     	; 0x9bc <LCD_puts+0x1c>
     9c8:	04 c0       	rjmp	.+8      	; 0x9d2 <LCD_puts+0x32>
     9ca:	0e 94 42 04 	call	0x884	; 0x884 <LCD_putchar>
     9ce:	cf 5f       	subi	r28, 0xFF	; 255
     9d0:	ee cf       	rjmp	.-36     	; 0x9ae <LCD_puts+0xe>
     9d2:	df 91       	pop	r29
     9d4:	cf 91       	pop	r28
     9d6:	1f 91       	pop	r17
     9d8:	0f 91       	pop	r16
     9da:	08 95       	ret

000009dc <printIOStr>:
     9dc:	cf 92       	push	r12
     9de:	df 92       	push	r13
     9e0:	ef 92       	push	r14
     9e2:	ff 92       	push	r15
     9e4:	0f 93       	push	r16
     9e6:	1f 93       	push	r17
     9e8:	cf 93       	push	r28
     9ea:	df 93       	push	r29
     9ec:	cd b7       	in	r28, 0x3d	; 61
     9ee:	de b7       	in	r29, 0x3e	; 62
     9f0:	6b 97       	sbiw	r28, 0x1b	; 27
     9f2:	0f b6       	in	r0, 0x3f	; 63
     9f4:	f8 94       	cli
     9f6:	de bf       	out	0x3e, r29	; 62
     9f8:	0f be       	out	0x3f, r0	; 63
     9fa:	cd bf       	out	0x3d, r28	; 61
     9fc:	7c 01       	movw	r14, r24
     9fe:	62 e0       	ldi	r22, 0x02	; 2
     a00:	80 e0       	ldi	r24, 0x00	; 0
     a02:	0e 94 2f 04 	call	0x85e	; 0x85e <LCD_gotoXY>
     a06:	64 e6       	ldi	r22, 0x64	; 100
     a08:	71 e0       	ldi	r23, 0x01	; 1
     a0a:	ce 01       	movw	r24, r28
     a0c:	01 96       	adiw	r24, 0x01	; 1
     a0e:	0e 94 1b 1e 	call	0x3c36	; 0x3c36 <strcpy_P>
     a12:	66 ef       	ldi	r22, 0xF6	; 246
     a14:	70 e0       	ldi	r23, 0x00	; 0
     a16:	ce 01       	movw	r24, r28
     a18:	01 96       	adiw	r24, 0x01	; 1
     a1a:	0e 94 2b 1e 	call	0x3c56	; 0x3c56 <strcat>
     a1e:	f7 01       	movw	r30, r14
     a20:	80 81       	ld	r24, Z
     a22:	8f 70       	andi	r24, 0x0F	; 15
     a24:	39 f4       	brne	.+14     	; 0xa34 <printIOStr+0x58>
     a26:	67 eb       	ldi	r22, 0xB7	; 183
     a28:	70 e0       	ldi	r23, 0x00	; 0
     a2a:	ce 01       	movw	r24, r28
     a2c:	01 96       	adiw	r24, 0x01	; 1
     a2e:	0e 94 10 1e 	call	0x3c20	; 0x3c20 <strcat_P>
     a32:	2d c0       	rjmp	.+90     	; 0xa8e <printIOStr+0xb2>
     a34:	80 e0       	ldi	r24, 0x00	; 0
     a36:	90 e0       	ldi	r25, 0x00	; 0
     a38:	cc 24       	eor	r12, r12
     a3a:	c3 94       	inc	r12
     a3c:	d1 2c       	mov	r13, r1
     a3e:	f7 01       	movw	r30, r14
     a40:	30 81       	ld	r19, Z
     a42:	a6 01       	movw	r20, r12
     a44:	08 2e       	mov	r0, r24
     a46:	02 c0       	rjmp	.+4      	; 0xa4c <printIOStr+0x70>
     a48:	44 0f       	add	r20, r20
     a4a:	55 1f       	adc	r21, r21
     a4c:	0a 94       	dec	r0
     a4e:	e2 f7       	brpl	.-8      	; 0xa48 <printIOStr+0x6c>
     a50:	23 2f       	mov	r18, r19
     a52:	30 e0       	ldi	r19, 0x00	; 0
     a54:	24 23       	and	r18, r20
     a56:	35 23       	and	r19, r21
     a58:	08 2e       	mov	r0, r24
     a5a:	02 c0       	rjmp	.+4      	; 0xa60 <printIOStr+0x84>
     a5c:	35 95       	asr	r19
     a5e:	27 95       	ror	r18
     a60:	0a 94       	dec	r0
     a62:	e2 f7       	brpl	.-8      	; 0xa5c <printIOStr+0x80>
     a64:	8c 01       	movw	r16, r24
     a66:	0f 5f       	subi	r16, 0xFF	; 255
     a68:	1f 4f       	sbci	r17, 0xFF	; 255
     a6a:	23 2b       	or	r18, r19
     a6c:	61 f0       	breq	.+24     	; 0xa86 <printIOStr+0xaa>
     a6e:	4a e0       	ldi	r20, 0x0A	; 10
     a70:	be 01       	movw	r22, r28
     a72:	6b 5e       	subi	r22, 0xEB	; 235
     a74:	7f 4f       	sbci	r23, 0xFF	; 255
     a76:	c8 01       	movw	r24, r16
     a78:	0e 94 36 1e 	call	0x3c6c	; 0x3c6c <__itoa_ncheck>
     a7c:	bc 01       	movw	r22, r24
     a7e:	ce 01       	movw	r24, r28
     a80:	01 96       	adiw	r24, 0x01	; 1
     a82:	0e 94 2b 1e 	call	0x3c56	; 0x3c56 <strcat>
     a86:	c8 01       	movw	r24, r16
     a88:	04 30       	cpi	r16, 0x04	; 4
     a8a:	11 05       	cpc	r17, r1
     a8c:	c1 f6       	brne	.-80     	; 0xa3e <printIOStr+0x62>
     a8e:	64 e1       	ldi	r22, 0x14	; 20
     a90:	ce 01       	movw	r24, r28
     a92:	01 96       	adiw	r24, 0x01	; 1
     a94:	0e 94 d0 04 	call	0x9a0	; 0x9a0 <LCD_puts>
     a98:	62 e0       	ldi	r22, 0x02	; 2
     a9a:	89 e0       	ldi	r24, 0x09	; 9
     a9c:	0e 94 2f 04 	call	0x85e	; 0x85e <LCD_gotoXY>
     aa0:	60 e6       	ldi	r22, 0x60	; 96
     aa2:	71 e0       	ldi	r23, 0x01	; 1
     aa4:	ce 01       	movw	r24, r28
     aa6:	01 96       	adiw	r24, 0x01	; 1
     aa8:	0e 94 1b 1e 	call	0x3c36	; 0x3c36 <strcpy_P>
     aac:	66 ef       	ldi	r22, 0xF6	; 246
     aae:	70 e0       	ldi	r23, 0x00	; 0
     ab0:	ce 01       	movw	r24, r28
     ab2:	01 96       	adiw	r24, 0x01	; 1
     ab4:	0e 94 2b 1e 	call	0x3c56	; 0x3c56 <strcat>
     ab8:	f7 01       	movw	r30, r14
     aba:	80 81       	ld	r24, Z
     abc:	80 7f       	andi	r24, 0xF0	; 240
     abe:	39 f4       	brne	.+14     	; 0xace <printIOStr+0xf2>
     ac0:	67 eb       	ldi	r22, 0xB7	; 183
     ac2:	70 e0       	ldi	r23, 0x00	; 0
     ac4:	ce 01       	movw	r24, r28
     ac6:	01 96       	adiw	r24, 0x01	; 1
     ac8:	0e 94 10 1e 	call	0x3c20	; 0x3c20 <strcat_P>
     acc:	2b c0       	rjmp	.+86     	; 0xb24 <printIOStr+0x148>
     ace:	04 e0       	ldi	r16, 0x04	; 4
     ad0:	10 e0       	ldi	r17, 0x00	; 0
     ad2:	cc 24       	eor	r12, r12
     ad4:	c3 94       	inc	r12
     ad6:	d1 2c       	mov	r13, r1
     ad8:	f7 01       	movw	r30, r14
     ada:	80 81       	ld	r24, Z
     adc:	90 e0       	ldi	r25, 0x00	; 0
     ade:	96 01       	movw	r18, r12
     ae0:	00 2e       	mov	r0, r16
     ae2:	02 c0       	rjmp	.+4      	; 0xae8 <printIOStr+0x10c>
     ae4:	22 0f       	add	r18, r18
     ae6:	33 1f       	adc	r19, r19
     ae8:	0a 94       	dec	r0
     aea:	e2 f7       	brpl	.-8      	; 0xae4 <printIOStr+0x108>
     aec:	82 23       	and	r24, r18
     aee:	93 23       	and	r25, r19
     af0:	00 2e       	mov	r0, r16
     af2:	02 c0       	rjmp	.+4      	; 0xaf8 <printIOStr+0x11c>
     af4:	95 95       	asr	r25
     af6:	87 95       	ror	r24
     af8:	0a 94       	dec	r0
     afa:	e2 f7       	brpl	.-8      	; 0xaf4 <printIOStr+0x118>
     afc:	89 2b       	or	r24, r25
     afe:	69 f0       	breq	.+26     	; 0xb1a <printIOStr+0x13e>
     b00:	4a e0       	ldi	r20, 0x0A	; 10
     b02:	be 01       	movw	r22, r28
     b04:	6b 5e       	subi	r22, 0xEB	; 235
     b06:	7f 4f       	sbci	r23, 0xFF	; 255
     b08:	c8 01       	movw	r24, r16
     b0a:	03 97       	sbiw	r24, 0x03	; 3
     b0c:	0e 94 36 1e 	call	0x3c6c	; 0x3c6c <__itoa_ncheck>
     b10:	bc 01       	movw	r22, r24
     b12:	ce 01       	movw	r24, r28
     b14:	01 96       	adiw	r24, 0x01	; 1
     b16:	0e 94 2b 1e 	call	0x3c56	; 0x3c56 <strcat>
     b1a:	0f 5f       	subi	r16, 0xFF	; 255
     b1c:	1f 4f       	sbci	r17, 0xFF	; 255
     b1e:	08 30       	cpi	r16, 0x08	; 8
     b20:	11 05       	cpc	r17, r1
     b22:	d1 f6       	brne	.-76     	; 0xad8 <printIOStr+0xfc>
     b24:	64 e1       	ldi	r22, 0x14	; 20
     b26:	ce 01       	movw	r24, r28
     b28:	01 96       	adiw	r24, 0x01	; 1
     b2a:	0e 94 d0 04 	call	0x9a0	; 0x9a0 <LCD_puts>
     b2e:	6b 96       	adiw	r28, 0x1b	; 27
     b30:	0f b6       	in	r0, 0x3f	; 63
     b32:	f8 94       	cli
     b34:	de bf       	out	0x3e, r29	; 62
     b36:	0f be       	out	0x3f, r0	; 63
     b38:	cd bf       	out	0x3d, r28	; 61
     b3a:	df 91       	pop	r29
     b3c:	cf 91       	pop	r28
     b3e:	1f 91       	pop	r17
     b40:	0f 91       	pop	r16
     b42:	ff 90       	pop	r15
     b44:	ef 90       	pop	r14
     b46:	df 90       	pop	r13
     b48:	cf 90       	pop	r12
     b4a:	08 95       	ret

00000b4c <printMTZStr>:
     b4c:	ef 92       	push	r14
     b4e:	ff 92       	push	r15
     b50:	0f 93       	push	r16
     b52:	1f 93       	push	r17
     b54:	cf 93       	push	r28
     b56:	df 93       	push	r29
     b58:	cd b7       	in	r28, 0x3d	; 61
     b5a:	de b7       	in	r29, 0x3e	; 62
     b5c:	6b 97       	sbiw	r28, 0x1b	; 27
     b5e:	0f b6       	in	r0, 0x3f	; 63
     b60:	f8 94       	cli
     b62:	de bf       	out	0x3e, r29	; 62
     b64:	0f be       	out	0x3f, r0	; 63
     b66:	cd bf       	out	0x3d, r28	; 61
     b68:	7c 01       	movw	r14, r24
     b6a:	8b 01       	movw	r16, r22
     b6c:	62 e0       	ldi	r22, 0x02	; 2
     b6e:	80 e0       	ldi	r24, 0x00	; 0
     b70:	0e 94 2f 04 	call	0x85e	; 0x85e <LCD_gotoXY>
     b74:	62 e8       	ldi	r22, 0x82	; 130
     b76:	70 e0       	ldi	r23, 0x00	; 0
     b78:	ce 01       	movw	r24, r28
     b7a:	01 96       	adiw	r24, 0x01	; 1
     b7c:	0e 94 1b 1e 	call	0x3c36	; 0x3c36 <strcpy_P>
     b80:	8f ef       	ldi	r24, 0xFF	; 255
     b82:	e8 16       	cp	r14, r24
     b84:	f8 06       	cpc	r15, r24
     b86:	19 f4       	brne	.+6      	; 0xb8e <printMTZStr+0x42>
     b88:	67 eb       	ldi	r22, 0xB7	; 183
     b8a:	70 e0       	ldi	r23, 0x00	; 0
     b8c:	0e c0       	rjmp	.+28     	; 0xbaa <printMTZStr+0x5e>
     b8e:	4a e0       	ldi	r20, 0x0A	; 10
     b90:	be 01       	movw	r22, r28
     b92:	6b 5e       	subi	r22, 0xEB	; 235
     b94:	7f 4f       	sbci	r23, 0xFF	; 255
     b96:	c7 01       	movw	r24, r14
     b98:	0e 94 36 1e 	call	0x3c6c	; 0x3c6c <__itoa_ncheck>
     b9c:	bc 01       	movw	r22, r24
     b9e:	ce 01       	movw	r24, r28
     ba0:	01 96       	adiw	r24, 0x01	; 1
     ba2:	0e 94 2b 1e 	call	0x3c56	; 0x3c56 <strcat>
     ba6:	65 e7       	ldi	r22, 0x75	; 117
     ba8:	70 e0       	ldi	r23, 0x00	; 0
     baa:	ce 01       	movw	r24, r28
     bac:	01 96       	adiw	r24, 0x01	; 1
     bae:	0e 94 10 1e 	call	0x3c20	; 0x3c20 <strcat_P>
     bb2:	64 e1       	ldi	r22, 0x14	; 20
     bb4:	ce 01       	movw	r24, r28
     bb6:	01 96       	adiw	r24, 0x01	; 1
     bb8:	0e 94 d0 04 	call	0x9a0	; 0x9a0 <LCD_puts>
     bbc:	63 e0       	ldi	r22, 0x03	; 3
     bbe:	80 e0       	ldi	r24, 0x00	; 0
     bc0:	0e 94 2f 04 	call	0x85e	; 0x85e <LCD_gotoXY>
     bc4:	68 e7       	ldi	r22, 0x78	; 120
     bc6:	70 e0       	ldi	r23, 0x00	; 0
     bc8:	ce 01       	movw	r24, r28
     bca:	01 96       	adiw	r24, 0x01	; 1
     bcc:	0e 94 1b 1e 	call	0x3c36	; 0x3c36 <strcpy_P>
     bd0:	0f 3f       	cpi	r16, 0xFF	; 255
     bd2:	8f ef       	ldi	r24, 0xFF	; 255
     bd4:	18 07       	cpc	r17, r24
     bd6:	19 f4       	brne	.+6      	; 0xbde <printMTZStr+0x92>
     bd8:	67 eb       	ldi	r22, 0xB7	; 183
     bda:	70 e0       	ldi	r23, 0x00	; 0
     bdc:	0e c0       	rjmp	.+28     	; 0xbfa <printMTZStr+0xae>
     bde:	4a e0       	ldi	r20, 0x0A	; 10
     be0:	be 01       	movw	r22, r28
     be2:	6b 5e       	subi	r22, 0xEB	; 235
     be4:	7f 4f       	sbci	r23, 0xFF	; 255
     be6:	c8 01       	movw	r24, r16
     be8:	0e 94 36 1e 	call	0x3c6c	; 0x3c6c <__itoa_ncheck>
     bec:	bc 01       	movw	r22, r24
     bee:	ce 01       	movw	r24, r28
     bf0:	01 96       	adiw	r24, 0x01	; 1
     bf2:	0e 94 2b 1e 	call	0x3c56	; 0x3c56 <strcat>
     bf6:	65 e7       	ldi	r22, 0x75	; 117
     bf8:	70 e0       	ldi	r23, 0x00	; 0
     bfa:	ce 01       	movw	r24, r28
     bfc:	01 96       	adiw	r24, 0x01	; 1
     bfe:	0e 94 10 1e 	call	0x3c20	; 0x3c20 <strcat_P>
     c02:	64 e1       	ldi	r22, 0x14	; 20
     c04:	ce 01       	movw	r24, r28
     c06:	01 96       	adiw	r24, 0x01	; 1
     c08:	0e 94 d0 04 	call	0x9a0	; 0x9a0 <LCD_puts>
     c0c:	6b 96       	adiw	r28, 0x1b	; 27
     c0e:	0f b6       	in	r0, 0x3f	; 63
     c10:	f8 94       	cli
     c12:	de bf       	out	0x3e, r29	; 62
     c14:	0f be       	out	0x3f, r0	; 63
     c16:	cd bf       	out	0x3d, r28	; 61
     c18:	df 91       	pop	r29
     c1a:	cf 91       	pop	r28
     c1c:	1f 91       	pop	r17
     c1e:	0f 91       	pop	r16
     c20:	ff 90       	pop	r15
     c22:	ef 90       	pop	r14
     c24:	08 95       	ret

00000c26 <printTimeStr.constprop.2>:
     c26:	0f 93       	push	r16
     c28:	1f 93       	push	r17
     c2a:	cf 93       	push	r28
     c2c:	df 93       	push	r29
     c2e:	cd b7       	in	r28, 0x3d	; 61
     c30:	de b7       	in	r29, 0x3e	; 62
     c32:	64 97       	sbiw	r28, 0x14	; 20
     c34:	0f b6       	in	r0, 0x3f	; 63
     c36:	f8 94       	cli
     c38:	de bf       	out	0x3e, r29	; 62
     c3a:	0f be       	out	0x3f, r0	; 63
     c3c:	cd bf       	out	0x3d, r28	; 61
     c3e:	fc 01       	movw	r30, r24
     c40:	55 81       	ldd	r21, Z+5	; 0x05
     c42:	44 81       	ldd	r20, Z+4	; 0x04
     c44:	33 81       	ldd	r19, Z+3	; 0x03
     c46:	22 81       	ldd	r18, Z+2	; 0x02
     c48:	91 81       	ldd	r25, Z+1	; 0x01
     c4a:	80 81       	ld	r24, Z
     c4c:	1f 92       	push	r1
     c4e:	5f 93       	push	r21
     c50:	1f 92       	push	r1
     c52:	4f 93       	push	r20
     c54:	1f 92       	push	r1
     c56:	3f 93       	push	r19
     c58:	1f 92       	push	r1
     c5a:	2f 93       	push	r18
     c5c:	1f 92       	push	r1
     c5e:	9f 93       	push	r25
     c60:	1f 92       	push	r1
     c62:	8f 93       	push	r24
     c64:	88 ef       	ldi	r24, 0xF8	; 248
     c66:	90 e0       	ldi	r25, 0x00	; 0
     c68:	9f 93       	push	r25
     c6a:	8f 93       	push	r24
     c6c:	8e 01       	movw	r16, r28
     c6e:	0f 5f       	subi	r16, 0xFF	; 255
     c70:	1f 4f       	sbci	r17, 0xFF	; 255
     c72:	1f 93       	push	r17
     c74:	0f 93       	push	r16
     c76:	0e 94 8c 1e 	call	0x3d18	; 0x3d18 <sprintf>
     c7a:	61 e0       	ldi	r22, 0x01	; 1
     c7c:	80 e0       	ldi	r24, 0x00	; 0
     c7e:	0e 94 2f 04 	call	0x85e	; 0x85e <LCD_gotoXY>
     c82:	64 e1       	ldi	r22, 0x14	; 20
     c84:	c8 01       	movw	r24, r16
     c86:	0e 94 d0 04 	call	0x9a0	; 0x9a0 <LCD_puts>
     c8a:	0f b6       	in	r0, 0x3f	; 63
     c8c:	f8 94       	cli
     c8e:	de bf       	out	0x3e, r29	; 62
     c90:	0f be       	out	0x3f, r0	; 63
     c92:	cd bf       	out	0x3d, r28	; 61
     c94:	64 96       	adiw	r28, 0x14	; 20
     c96:	0f b6       	in	r0, 0x3f	; 63
     c98:	f8 94       	cli
     c9a:	de bf       	out	0x3e, r29	; 62
     c9c:	0f be       	out	0x3f, r0	; 63
     c9e:	cd bf       	out	0x3d, r28	; 61
     ca0:	df 91       	pop	r29
     ca2:	cf 91       	pop	r28
     ca4:	1f 91       	pop	r17
     ca6:	0f 91       	pop	r16
     ca8:	08 95       	ret

00000caa <LCD_puts_P>:
     caa:	0f 93       	push	r16
     cac:	1f 93       	push	r17
     cae:	cf 93       	push	r28
     cb0:	df 93       	push	r29
     cb2:	d6 2f       	mov	r29, r22
     cb4:	c0 e0       	ldi	r28, 0x00	; 0
     cb6:	cd 17       	cp	r28, r29
     cb8:	a9 f0       	breq	.+42     	; 0xce4 <LCD_puts_P+0x3a>
     cba:	fc 01       	movw	r30, r24
     cbc:	24 91       	lpm	r18, Z
     cbe:	8c 01       	movw	r16, r24
     cc0:	0f 5f       	subi	r16, 0xFF	; 255
     cc2:	1f 4f       	sbci	r17, 0xFF	; 255
     cc4:	21 11       	cpse	r18, r1
     cc6:	07 c0       	rjmp	.+14     	; 0xcd6 <LCD_puts_P+0x2c>
     cc8:	80 e2       	ldi	r24, 0x20	; 32
     cca:	0e 94 42 04 	call	0x884	; 0x884 <LCD_putchar>
     cce:	cf 5f       	subi	r28, 0xFF	; 255
     cd0:	cd 17       	cp	r28, r29
     cd2:	d0 f3       	brcs	.-12     	; 0xcc8 <LCD_puts_P+0x1e>
     cd4:	07 c0       	rjmp	.+14     	; 0xce4 <LCD_puts_P+0x3a>
     cd6:	fc 01       	movw	r30, r24
     cd8:	84 91       	lpm	r24, Z
     cda:	0e 94 42 04 	call	0x884	; 0x884 <LCD_putchar>
     cde:	cf 5f       	subi	r28, 0xFF	; 255
     ce0:	c8 01       	movw	r24, r16
     ce2:	e9 cf       	rjmp	.-46     	; 0xcb6 <LCD_puts_P+0xc>
     ce4:	df 91       	pop	r29
     ce6:	cf 91       	pop	r28
     ce8:	1f 91       	pop	r17
     cea:	0f 91       	pop	r16
     cec:	08 95       	ret

00000cee <printTOUT>:
     cee:	62 e0       	ldi	r22, 0x02	; 2
     cf0:	80 e0       	ldi	r24, 0x00	; 0
     cf2:	0e 94 2f 04 	call	0x85e	; 0x85e <LCD_gotoXY>
     cf6:	64 e1       	ldi	r22, 0x14	; 20
     cf8:	8b eb       	ldi	r24, 0xBB	; 187
     cfa:	90 e0       	ldi	r25, 0x00	; 0
     cfc:	0c 94 55 06 	jmp	0xcaa	; 0xcaa <LCD_puts_P>

00000d00 <printMenuHeader>:
     d00:	cf 93       	push	r28
     d02:	df 93       	push	r29
     d04:	ec 01       	movw	r28, r24
     d06:	0e 94 21 04 	call	0x842	; 0x842 <LCD_clr>
     d0a:	ce 01       	movw	r24, r28
     d0c:	0e 94 22 1e 	call	0x3c44	; 0x3c44 <__strlen_P>
     d10:	68 2f       	mov	r22, r24
     d12:	ce 01       	movw	r24, r28
     d14:	0e 94 55 06 	call	0xcaa	; 0xcaa <LCD_puts_P>
     d18:	8a e3       	ldi	r24, 0x3A	; 58
     d1a:	df 91       	pop	r29
     d1c:	cf 91       	pop	r28
     d1e:	0c 94 42 04 	jmp	0x884	; 0x884 <LCD_putchar>

00000d22 <SPI_init>:
     d22:	87 b3       	in	r24, 0x17	; 23
     d24:	80 6b       	ori	r24, 0xB0	; 176
     d26:	87 bb       	out	0x17, r24	; 23
     d28:	88 b3       	in	r24, 0x18	; 24
     d2a:	80 6b       	ori	r24, 0xB0	; 176
     d2c:	88 bb       	out	0x18, r24	; 24
     d2e:	8e e5       	ldi	r24, 0x5E	; 94
     d30:	8d b9       	out	0x0d, r24	; 13
     d32:	08 95       	ret

00000d34 <SPI_transmit>:
     d34:	8f b9       	out	0x0f, r24	; 15
     d36:	88 ee       	ldi	r24, 0xE8	; 232
     d38:	93 e0       	ldi	r25, 0x03	; 3
     d3a:	90 93 fd 04 	sts	0x04FD, r25	; 0x8004fd <SPI_timeout+0x1>
     d3e:	80 93 fc 04 	sts	0x04FC, r24	; 0x8004fc <SPI_timeout>
     d42:	77 99       	sbic	0x0e, 7	; 14
     d44:	0b c0       	rjmp	.+22     	; 0xd5c <SPI_transmit+0x28>
     d46:	80 91 fc 04 	lds	r24, 0x04FC	; 0x8004fc <SPI_timeout>
     d4a:	90 91 fd 04 	lds	r25, 0x04FD	; 0x8004fd <SPI_timeout+0x1>
     d4e:	89 2b       	or	r24, r25
     d50:	c1 f7       	brne	.-16     	; 0xd42 <SPI_transmit+0xe>
     d52:	86 e0       	ldi	r24, 0x06	; 6
     d54:	80 93 63 01 	sts	0x0163, r24	; 0x800163 <CAN_ERR>
     d58:	8f ef       	ldi	r24, 0xFF	; 255
     d5a:	08 95       	ret
     d5c:	8f b1       	in	r24, 0x0f	; 15
     d5e:	08 95       	ret

00000d60 <CAN_getStatus>:
     d60:	c4 98       	cbi	0x18, 4	; 24
     d62:	80 ea       	ldi	r24, 0xA0	; 160
     d64:	0e 94 9a 06 	call	0xd34	; 0xd34 <SPI_transmit>
     d68:	80 e0       	ldi	r24, 0x00	; 0
     d6a:	0e 94 9a 06 	call	0xd34	; 0xd34 <SPI_transmit>
     d6e:	c4 9a       	sbi	0x18, 4	; 24
     d70:	08 95       	ret

00000d72 <CAN_read>:
     d72:	cf 93       	push	r28
     d74:	c8 2f       	mov	r28, r24
     d76:	c4 98       	cbi	0x18, 4	; 24
     d78:	83 e0       	ldi	r24, 0x03	; 3
     d7a:	0e 94 9a 06 	call	0xd34	; 0xd34 <SPI_transmit>
     d7e:	8c 2f       	mov	r24, r28
     d80:	0e 94 9a 06 	call	0xd34	; 0xd34 <SPI_transmit>
     d84:	80 e0       	ldi	r24, 0x00	; 0
     d86:	0e 94 9a 06 	call	0xd34	; 0xd34 <SPI_transmit>
     d8a:	c4 9a       	sbi	0x18, 4	; 24
     d8c:	cf 91       	pop	r28
     d8e:	08 95       	ret

00000d90 <CAN_bitModify>:
     d90:	1f 93       	push	r17
     d92:	cf 93       	push	r28
     d94:	df 93       	push	r29
     d96:	18 2f       	mov	r17, r24
     d98:	d6 2f       	mov	r29, r22
     d9a:	c4 2f       	mov	r28, r20
     d9c:	c4 98       	cbi	0x18, 4	; 24
     d9e:	85 e0       	ldi	r24, 0x05	; 5
     da0:	0e 94 9a 06 	call	0xd34	; 0xd34 <SPI_transmit>
     da4:	81 2f       	mov	r24, r17
     da6:	0e 94 9a 06 	call	0xd34	; 0xd34 <SPI_transmit>
     daa:	8d 2f       	mov	r24, r29
     dac:	0e 94 9a 06 	call	0xd34	; 0xd34 <SPI_transmit>
     db0:	8c 2f       	mov	r24, r28
     db2:	0e 94 9a 06 	call	0xd34	; 0xd34 <SPI_transmit>
     db6:	c4 9a       	sbi	0x18, 4	; 24
     db8:	df 91       	pop	r29
     dba:	cf 91       	pop	r28
     dbc:	1f 91       	pop	r17
     dbe:	08 95       	ret

00000dc0 <CAN_write>:
     dc0:	cf 93       	push	r28
     dc2:	df 93       	push	r29
     dc4:	d8 2f       	mov	r29, r24
     dc6:	c6 2f       	mov	r28, r22
     dc8:	c4 98       	cbi	0x18, 4	; 24
     dca:	82 e0       	ldi	r24, 0x02	; 2
     dcc:	0e 94 9a 06 	call	0xd34	; 0xd34 <SPI_transmit>
     dd0:	8d 2f       	mov	r24, r29
     dd2:	0e 94 9a 06 	call	0xd34	; 0xd34 <SPI_transmit>
     dd6:	8c 2f       	mov	r24, r28
     dd8:	0e 94 9a 06 	call	0xd34	; 0xd34 <SPI_transmit>
     ddc:	c4 9a       	sbi	0x18, 4	; 24
     dde:	df 91       	pop	r29
     de0:	cf 91       	pop	r28
     de2:	08 95       	ret

00000de4 <CANgetPosition>:
     de4:	88 ee       	ldi	r24, 0xE8	; 232
     de6:	93 e0       	ldi	r25, 0x03	; 3
     de8:	90 93 fb 04 	sts	0x04FB, r25	; 0x8004fb <CAN_timeout+0x1>
     dec:	80 93 fa 04 	sts	0x04FA, r24	; 0x8004fa <CAN_timeout>
     df0:	80 91 76 01 	lds	r24, 0x0176	; 0x800176 <CANRXcounter>
     df4:	81 11       	cpse	r24, r1
     df6:	0b c0       	rjmp	.+22     	; 0xe0e <CANgetPosition+0x2a>
     df8:	80 91 fa 04 	lds	r24, 0x04FA	; 0x8004fa <CAN_timeout>
     dfc:	90 91 fb 04 	lds	r25, 0x04FB	; 0x8004fb <CAN_timeout+0x1>
     e00:	89 2b       	or	r24, r25
     e02:	b1 f7       	brne	.-20     	; 0xdf0 <CANgetPosition+0xc>
     e04:	82 e0       	ldi	r24, 0x02	; 2
     e06:	80 93 63 01 	sts	0x0163, r24	; 0x800163 <CAN_ERR>
     e0a:	8f ef       	ldi	r24, 0xFF	; 255
     e0c:	08 95       	ret
     e0e:	f8 94       	cli
     e10:	80 91 76 01 	lds	r24, 0x0176	; 0x800176 <CANRXcounter>
     e14:	81 50       	subi	r24, 0x01	; 1
     e16:	80 93 76 01 	sts	0x0176, r24	; 0x800176 <CANRXcounter>
     e1a:	78 94       	sei
     e1c:	80 91 7c 01 	lds	r24, 0x017C	; 0x80017c <CANRDindex>
     e20:	90 91 7c 01 	lds	r25, 0x017C	; 0x80017c <CANRDindex>
     e24:	9f 5f       	subi	r25, 0xFF	; 255
     e26:	90 93 7c 01 	sts	0x017C, r25	; 0x80017c <CANRDindex>
     e2a:	9a 30       	cpi	r25, 0x0A	; 10
     e2c:	11 f4       	brne	.+4      	; 0xe32 <CANgetPosition+0x4e>
     e2e:	10 92 7c 01 	sts	0x017C, r1	; 0x80017c <CANRDindex>
     e32:	08 95       	ret

00000e34 <CAN_gets>:
     e34:	9f 92       	push	r9
     e36:	af 92       	push	r10
     e38:	bf 92       	push	r11
     e3a:	cf 92       	push	r12
     e3c:	df 92       	push	r13
     e3e:	ef 92       	push	r14
     e40:	ff 92       	push	r15
     e42:	0f 93       	push	r16
     e44:	1f 93       	push	r17
     e46:	cf 93       	push	r28
     e48:	df 93       	push	r29
     e4a:	d8 2f       	mov	r29, r24
     e4c:	c9 2f       	mov	r28, r25
     e4e:	b6 2e       	mov	r11, r22
     e50:	0e 94 f2 06 	call	0xde4	; 0xde4 <CANgetPosition>
     e54:	9d e0       	ldi	r25, 0x0D	; 13
     e56:	89 9f       	mul	r24, r25
     e58:	f0 01       	movw	r30, r0
     e5a:	11 24       	eor	r1, r1
     e5c:	ec 5e       	subi	r30, 0xEC	; 236
     e5e:	fa 4f       	sbci	r31, 0xFA	; 250
     e60:	c0 80       	ld	r12, Z
     e62:	d1 80       	ldd	r13, Z+1	; 0x01
     e64:	e2 80       	ldd	r14, Z+2	; 0x02
     e66:	f3 80       	ldd	r15, Z+3	; 0x03
     e68:	0d 2f       	mov	r16, r29
     e6a:	1c 2f       	mov	r17, r28
     e6c:	9d e0       	ldi	r25, 0x0D	; 13
     e6e:	a9 2e       	mov	r10, r25
     e70:	2d e0       	ldi	r18, 0x0D	; 13
     e72:	92 2e       	mov	r9, r18
     e74:	b1 10       	cpse	r11, r1
     e76:	03 c0       	rjmp	.+6      	; 0xe7e <CAN_gets+0x4a>
     e78:	8d 2f       	mov	r24, r29
     e7a:	9c 2f       	mov	r25, r28
     e7c:	41 c0       	rjmp	.+130    	; 0xf00 <CAN_gets+0xcc>
     e7e:	40 e0       	ldi	r20, 0x00	; 0
     e80:	a8 9e       	mul	r10, r24
     e82:	f0 01       	movw	r30, r0
     e84:	11 24       	eor	r1, r1
     e86:	ec 5e       	subi	r30, 0xEC	; 236
     e88:	fa 4f       	sbci	r31, 0xFA	; 250
     e8a:	bf 01       	movw	r22, r30
     e8c:	6c 5f       	subi	r22, 0xFC	; 252
     e8e:	7f 4f       	sbci	r23, 0xFF	; 255
     e90:	db 01       	movw	r26, r22
     e92:	8c 91       	ld	r24, X
     e94:	24 2f       	mov	r18, r20
     e96:	30 e0       	ldi	r19, 0x00	; 0
     e98:	48 17       	cp	r20, r24
     e9a:	60 f4       	brcc	.+24     	; 0xeb4 <CAN_gets+0x80>
     e9c:	cf 01       	movw	r24, r30
     e9e:	82 0f       	add	r24, r18
     ea0:	93 1f       	adc	r25, r19
     ea2:	dc 01       	movw	r26, r24
     ea4:	15 96       	adiw	r26, 0x05	; 5
     ea6:	8c 91       	ld	r24, X
     ea8:	20 0f       	add	r18, r16
     eaa:	31 1f       	adc	r19, r17
     eac:	d9 01       	movw	r26, r18
     eae:	8c 93       	st	X, r24
     eb0:	4f 5f       	subi	r20, 0xFF	; 255
     eb2:	ee cf       	rjmp	.-36     	; 0xe90 <CAN_gets+0x5c>
     eb4:	20 0f       	add	r18, r16
     eb6:	31 1f       	adc	r19, r17
     eb8:	d9 01       	movw	r26, r18
     eba:	11 97       	sbiw	r26, 0x01	; 1
     ebc:	8c 91       	ld	r24, X
     ebe:	88 23       	and	r24, r24
     ec0:	d9 f2       	breq	.-74     	; 0xe78 <CAN_gets+0x44>
     ec2:	84 81       	ldd	r24, Z+4	; 0x04
     ec4:	08 0f       	add	r16, r24
     ec6:	11 1d       	adc	r17, r1
     ec8:	0e 94 f2 06 	call	0xde4	; 0xde4 <CANgetPosition>
     ecc:	90 91 63 01 	lds	r25, 0x0163	; 0x800163 <CAN_ERR>
     ed0:	91 11       	cpse	r25, r1
     ed2:	14 c0       	rjmp	.+40     	; 0xefc <CAN_gets+0xc8>
     ed4:	98 9e       	mul	r9, r24
     ed6:	f0 01       	movw	r30, r0
     ed8:	11 24       	eor	r1, r1
     eda:	ec 5e       	subi	r30, 0xEC	; 236
     edc:	fa 4f       	sbci	r31, 0xFA	; 250
     ede:	40 81       	ld	r20, Z
     ee0:	51 81       	ldd	r21, Z+1	; 0x01
     ee2:	62 81       	ldd	r22, Z+2	; 0x02
     ee4:	73 81       	ldd	r23, Z+3	; 0x03
     ee6:	ba 94       	dec	r11
     ee8:	c4 16       	cp	r12, r20
     eea:	d5 06       	cpc	r13, r21
     eec:	e6 06       	cpc	r14, r22
     eee:	f7 06       	cpc	r15, r23
     ef0:	09 f2       	breq	.-126    	; 0xe74 <CAN_gets+0x40>
     ef2:	83 e0       	ldi	r24, 0x03	; 3
     ef4:	80 93 63 01 	sts	0x0163, r24	; 0x800163 <CAN_ERR>
     ef8:	80 e0       	ldi	r24, 0x00	; 0
     efa:	02 c0       	rjmp	.+4      	; 0xf00 <CAN_gets+0xcc>
     efc:	80 e0       	ldi	r24, 0x00	; 0
     efe:	90 e0       	ldi	r25, 0x00	; 0
     f00:	df 91       	pop	r29
     f02:	cf 91       	pop	r28
     f04:	1f 91       	pop	r17
     f06:	0f 91       	pop	r16
     f08:	ff 90       	pop	r15
     f0a:	ef 90       	pop	r14
     f0c:	df 90       	pop	r13
     f0e:	cf 90       	pop	r12
     f10:	bf 90       	pop	r11
     f12:	af 90       	pop	r10
     f14:	9f 90       	pop	r9
     f16:	08 95       	ret

00000f18 <CAN_loadTXbuf>:
     f18:	af 92       	push	r10
     f1a:	bf 92       	push	r11
     f1c:	cf 92       	push	r12
     f1e:	df 92       	push	r13
     f20:	ef 92       	push	r14
     f22:	ff 92       	push	r15
     f24:	0f 93       	push	r16
     f26:	1f 93       	push	r17
     f28:	cf 93       	push	r28
     f2a:	df 93       	push	r29
     f2c:	6b 01       	movw	r12, r22
     f2e:	7c 01       	movw	r14, r24
     f30:	14 2f       	mov	r17, r20
     f32:	59 01       	movw	r10, r18
     f34:	0e 94 b0 06 	call	0xd60	; 0xd60 <CAN_getStatus>
     f38:	dc 2d       	mov	r29, r12
     f3a:	d2 95       	swap	r29
     f3c:	dd 0f       	add	r29, r29
     f3e:	d0 7e       	andi	r29, 0xE0	; 224
     f40:	90 2f       	mov	r25, r16
     f42:	98 70       	andi	r25, 0x08	; 8
     f44:	d9 2b       	or	r29, r25
     f46:	b7 01       	movw	r22, r14
     f48:	a6 01       	movw	r20, r12
     f4a:	eb e1       	ldi	r30, 0x1B	; 27
     f4c:	76 95       	lsr	r23
     f4e:	67 95       	ror	r22
     f50:	57 95       	ror	r21
     f52:	47 95       	ror	r20
     f54:	ea 95       	dec	r30
     f56:	d1 f7       	brne	.-12     	; 0xf4c <CAN_loadTXbuf+0x34>
     f58:	43 70       	andi	r20, 0x03	; 3
     f5a:	d4 2b       	or	r29, r20
     f5c:	86 ff       	sbrs	r24, 6
     f5e:	0b c0       	rjmp	.+22     	; 0xf76 <CAN_loadTXbuf+0x5e>
     f60:	84 ff       	sbrs	r24, 4
     f62:	0b c0       	rjmp	.+22     	; 0xf7a <CAN_loadTXbuf+0x62>
     f64:	82 fd       	sbrc	r24, 2
     f66:	02 c0       	rjmp	.+4      	; 0xf6c <CAN_loadTXbuf+0x54>
     f68:	c1 e0       	ldi	r28, 0x01	; 1
     f6a:	08 c0       	rjmp	.+16     	; 0xf7c <CAN_loadTXbuf+0x64>
     f6c:	85 e0       	ldi	r24, 0x05	; 5
     f6e:	80 93 63 01 	sts	0x0163, r24	; 0x800163 <CAN_ERR>
     f72:	8f ef       	ldi	r24, 0xFF	; 255
     f74:	58 c0       	rjmp	.+176    	; 0x1026 <CAN_loadTXbuf+0x10e>
     f76:	c3 e0       	ldi	r28, 0x03	; 3
     f78:	01 c0       	rjmp	.+2      	; 0xf7c <CAN_loadTXbuf+0x64>
     f7a:	c2 e0       	ldi	r28, 0x02	; 2
     f7c:	f8 94       	cli
     f7e:	c4 98       	cbi	0x18, 4	; 24
     f80:	82 e0       	ldi	r24, 0x02	; 2
     f82:	0e 94 9a 06 	call	0xd34	; 0xd34 <SPI_transmit>
     f86:	8c 2f       	mov	r24, r28
     f88:	82 95       	swap	r24
     f8a:	80 7f       	andi	r24, 0xF0	; 240
     f8c:	80 5e       	subi	r24, 0xE0	; 224
     f8e:	0e 94 9a 06 	call	0xd34	; 0xd34 <SPI_transmit>
     f92:	80 2f       	mov	r24, r16
     f94:	83 70       	andi	r24, 0x03	; 3
     f96:	0e 94 9a 06 	call	0xd34	; 0xd34 <SPI_transmit>
     f9a:	d7 01       	movw	r26, r14
     f9c:	c6 01       	movw	r24, r12
     f9e:	23 e0       	ldi	r18, 0x03	; 3
     fa0:	b6 95       	lsr	r27
     fa2:	a7 95       	ror	r26
     fa4:	97 95       	ror	r25
     fa6:	87 95       	ror	r24
     fa8:	2a 95       	dec	r18
     faa:	d1 f7       	brne	.-12     	; 0xfa0 <CAN_loadTXbuf+0x88>
     fac:	0e 94 9a 06 	call	0xd34	; 0xd34 <SPI_transmit>
     fb0:	8d 2f       	mov	r24, r29
     fb2:	0e 94 9a 06 	call	0xd34	; 0xd34 <SPI_transmit>
     fb6:	d7 01       	movw	r26, r14
     fb8:	c6 01       	movw	r24, r12
     fba:	33 e1       	ldi	r19, 0x13	; 19
     fbc:	b6 95       	lsr	r27
     fbe:	a7 95       	ror	r26
     fc0:	97 95       	ror	r25
     fc2:	87 95       	ror	r24
     fc4:	3a 95       	dec	r19
     fc6:	d1 f7       	brne	.-12     	; 0xfbc <CAN_loadTXbuf+0xa4>
     fc8:	0e 94 9a 06 	call	0xd34	; 0xd34 <SPI_transmit>
     fcc:	d7 01       	movw	r26, r14
     fce:	c6 01       	movw	r24, r12
     fd0:	4b e0       	ldi	r20, 0x0B	; 11
     fd2:	b6 95       	lsr	r27
     fd4:	a7 95       	ror	r26
     fd6:	97 95       	ror	r25
     fd8:	87 95       	ror	r24
     fda:	4a 95       	dec	r20
     fdc:	d1 f7       	brne	.-12     	; 0xfd2 <CAN_loadTXbuf+0xba>
     fde:	0e 94 9a 06 	call	0xd34	; 0xd34 <SPI_transmit>
     fe2:	81 2f       	mov	r24, r17
     fe4:	0e 94 9a 06 	call	0xd34	; 0xd34 <SPI_transmit>
     fe8:	75 01       	movw	r14, r10
     fea:	d0 e0       	ldi	r29, 0x00	; 0
     fec:	d1 17       	cp	r29, r17
     fee:	49 f0       	breq	.+18     	; 0x1002 <CAN_loadTXbuf+0xea>
     ff0:	d8 30       	cpi	r29, 0x08	; 8
     ff2:	39 f0       	breq	.+14     	; 0x1002 <CAN_loadTXbuf+0xea>
     ff4:	f7 01       	movw	r30, r14
     ff6:	81 91       	ld	r24, Z+
     ff8:	7f 01       	movw	r14, r30
     ffa:	0e 94 9a 06 	call	0xd34	; 0xd34 <SPI_transmit>
     ffe:	df 5f       	subi	r29, 0xFF	; 255
    1000:	f5 cf       	rjmp	.-22     	; 0xfec <CAN_loadTXbuf+0xd4>
    1002:	c4 9a       	sbi	0x18, 4	; 24
    1004:	02 ff       	sbrs	r16, 2
    1006:	0d c0       	rjmp	.+26     	; 0x1022 <CAN_loadTXbuf+0x10a>
    1008:	c4 98       	cbi	0x18, 4	; 24
    100a:	2f ef       	ldi	r18, 0xFF	; 255
    100c:	2c 0f       	add	r18, r28
    100e:	81 e0       	ldi	r24, 0x01	; 1
    1010:	90 e0       	ldi	r25, 0x00	; 0
    1012:	01 c0       	rjmp	.+2      	; 0x1016 <CAN_loadTXbuf+0xfe>
    1014:	88 0f       	add	r24, r24
    1016:	2a 95       	dec	r18
    1018:	ea f7       	brpl	.-6      	; 0x1014 <CAN_loadTXbuf+0xfc>
    101a:	80 68       	ori	r24, 0x80	; 128
    101c:	0e 94 9a 06 	call	0xd34	; 0xd34 <SPI_transmit>
    1020:	c4 9a       	sbi	0x18, 4	; 24
    1022:	78 94       	sei
    1024:	8c 2f       	mov	r24, r28
    1026:	df 91       	pop	r29
    1028:	cf 91       	pop	r28
    102a:	1f 91       	pop	r17
    102c:	0f 91       	pop	r16
    102e:	ff 90       	pop	r15
    1030:	ef 90       	pop	r14
    1032:	df 90       	pop	r13
    1034:	cf 90       	pop	r12
    1036:	bf 90       	pop	r11
    1038:	af 90       	pop	r10
    103a:	08 95       	ret

0000103c <CAN_puts>:
    103c:	8f 92       	push	r8
    103e:	9f 92       	push	r9
    1040:	af 92       	push	r10
    1042:	bf 92       	push	r11
    1044:	ef 92       	push	r14
    1046:	ff 92       	push	r15
    1048:	0f 93       	push	r16
    104a:	1f 93       	push	r17
    104c:	cf 93       	push	r28
    104e:	df 93       	push	r29
    1050:	7c 01       	movw	r14, r24
    1052:	c6 2f       	mov	r28, r22
    1054:	49 01       	movw	r8, r18
    1056:	5a 01       	movw	r10, r20
    1058:	16 2f       	mov	r17, r22
    105a:	16 95       	lsr	r17
    105c:	16 95       	lsr	r17
    105e:	16 95       	lsr	r17
    1060:	d0 e0       	ldi	r29, 0x00	; 0
    1062:	d1 17       	cp	r29, r17
    1064:	91 f0       	breq	.+36     	; 0x108a <CAN_puts+0x4e>
    1066:	0f ef       	ldi	r16, 0xFF	; 255
    1068:	97 01       	movw	r18, r14
    106a:	48 e0       	ldi	r20, 0x08	; 8
    106c:	c5 01       	movw	r24, r10
    106e:	b4 01       	movw	r22, r8
    1070:	0e 94 8c 07 	call	0xf18	; 0xf18 <CAN_loadTXbuf>
    1074:	80 91 63 01 	lds	r24, 0x0163	; 0x800163 <CAN_ERR>
    1078:	88 23       	and	r24, r24
    107a:	11 f0       	breq	.+4      	; 0x1080 <CAN_puts+0x44>
    107c:	8f ef       	ldi	r24, 0xFF	; 255
    107e:	13 c0       	rjmp	.+38     	; 0x10a6 <CAN_puts+0x6a>
    1080:	88 e0       	ldi	r24, 0x08	; 8
    1082:	e8 0e       	add	r14, r24
    1084:	f1 1c       	adc	r15, r1
    1086:	df 5f       	subi	r29, 0xFF	; 255
    1088:	ec cf       	rjmp	.-40     	; 0x1062 <CAN_puts+0x26>
    108a:	4c 2f       	mov	r20, r28
    108c:	47 70       	andi	r20, 0x07	; 7
    108e:	31 f0       	breq	.+12     	; 0x109c <CAN_puts+0x60>
    1090:	0f ef       	ldi	r16, 0xFF	; 255
    1092:	97 01       	movw	r18, r14
    1094:	c5 01       	movw	r24, r10
    1096:	b4 01       	movw	r22, r8
    1098:	0e 94 8c 07 	call	0xf18	; 0xf18 <CAN_loadTXbuf>
    109c:	80 91 63 01 	lds	r24, 0x0163	; 0x800163 <CAN_ERR>
    10a0:	81 11       	cpse	r24, r1
    10a2:	ec cf       	rjmp	.-40     	; 0x107c <CAN_puts+0x40>
    10a4:	81 e0       	ldi	r24, 0x01	; 1
    10a6:	df 91       	pop	r29
    10a8:	cf 91       	pop	r28
    10aa:	1f 91       	pop	r17
    10ac:	0f 91       	pop	r16
    10ae:	ff 90       	pop	r15
    10b0:	ef 90       	pop	r14
    10b2:	bf 90       	pop	r11
    10b4:	af 90       	pop	r10
    10b6:	9f 90       	pop	r9
    10b8:	8f 90       	pop	r8
    10ba:	08 95       	ret

000010bc <CAN_readRXbuf>:
    10bc:	2f 92       	push	r2
    10be:	3f 92       	push	r3
    10c0:	4f 92       	push	r4
    10c2:	5f 92       	push	r5
    10c4:	6f 92       	push	r6
    10c6:	7f 92       	push	r7
    10c8:	8f 92       	push	r8
    10ca:	9f 92       	push	r9
    10cc:	af 92       	push	r10
    10ce:	bf 92       	push	r11
    10d0:	cf 92       	push	r12
    10d2:	df 92       	push	r13
    10d4:	ef 92       	push	r14
    10d6:	ff 92       	push	r15
    10d8:	0f 93       	push	r16
    10da:	1f 93       	push	r17
    10dc:	cf 93       	push	r28
    10de:	df 93       	push	r29
    10e0:	00 d0       	rcall	.+0      	; 0x10e2 <CAN_readRXbuf+0x26>
    10e2:	00 d0       	rcall	.+0      	; 0x10e4 <CAN_readRXbuf+0x28>
    10e4:	1f 92       	push	r1
    10e6:	cd b7       	in	r28, 0x3d	; 61
    10e8:	de b7       	in	r29, 0x3e	; 62
    10ea:	1c 01       	movw	r2, r24
    10ec:	8b 01       	movw	r16, r22
    10ee:	5d 83       	std	Y+5, r21	; 0x05
    10f0:	4c 83       	std	Y+4, r20	; 0x04
    10f2:	79 01       	movw	r14, r18
    10f4:	0e 94 b0 06 	call	0xd60	; 0xd60 <CAN_getStatus>
    10f8:	80 fd       	sbrc	r24, 0
    10fa:	07 c0       	rjmp	.+14     	; 0x110a <CAN_readRXbuf+0x4e>
    10fc:	0e 94 b0 06 	call	0xd60	; 0xd60 <CAN_getStatus>
    1100:	81 fd       	sbrc	r24, 1
    1102:	05 c0       	rjmp	.+10     	; 0x110e <CAN_readRXbuf+0x52>
    1104:	80 e0       	ldi	r24, 0x00	; 0
    1106:	90 e0       	ldi	r25, 0x00	; 0
    1108:	91 c0       	rjmp	.+290    	; 0x122c <CAN_readRXbuf+0x170>
    110a:	80 e0       	ldi	r24, 0x00	; 0
    110c:	01 c0       	rjmp	.+2      	; 0x1110 <CAN_readRXbuf+0x54>
    110e:	81 e0       	ldi	r24, 0x01	; 1
    1110:	c4 98       	cbi	0x18, 4	; 24
    1112:	90 e0       	ldi	r25, 0x00	; 0
    1114:	88 0f       	add	r24, r24
    1116:	99 1f       	adc	r25, r25
    1118:	88 0f       	add	r24, r24
    111a:	99 1f       	adc	r25, r25
    111c:	80 69       	ori	r24, 0x90	; 144
    111e:	0e 94 9a 06 	call	0xd34	; 0xd34 <SPI_transmit>
    1122:	80 e0       	ldi	r24, 0x00	; 0
    1124:	0e 94 9a 06 	call	0xd34	; 0xd34 <SPI_transmit>
    1128:	88 2e       	mov	r8, r24
    112a:	91 2c       	mov	r9, r1
    112c:	a1 2c       	mov	r10, r1
    112e:	b1 2c       	mov	r11, r1
    1130:	80 e0       	ldi	r24, 0x00	; 0
    1132:	0e 94 9a 06 	call	0xd34	; 0xd34 <SPI_transmit>
    1136:	89 83       	std	Y+1, r24	; 0x01
    1138:	48 2e       	mov	r4, r24
    113a:	51 2c       	mov	r5, r1
    113c:	61 2c       	mov	r6, r1
    113e:	71 2c       	mov	r7, r1
    1140:	80 e0       	ldi	r24, 0x00	; 0
    1142:	0e 94 9a 06 	call	0xd34	; 0xd34 <SPI_transmit>
    1146:	8a 83       	std	Y+2, r24	; 0x02
    1148:	80 e0       	ldi	r24, 0x00	; 0
    114a:	0e 94 9a 06 	call	0xd34	; 0xd34 <SPI_transmit>
    114e:	8b 83       	std	Y+3, r24	; 0x03
    1150:	80 e0       	ldi	r24, 0x00	; 0
    1152:	0e 94 9a 06 	call	0xd34	; 0xd34 <SPI_transmit>
    1156:	ec 81       	ldd	r30, Y+4	; 0x04
    1158:	fd 81       	ldd	r31, Y+5	; 0x05
    115a:	80 83       	st	Z, r24
    115c:	1d 82       	std	Y+5, r1	; 0x05
    115e:	1c 82       	std	Y+4, r1	; 0x04
    1160:	cc 80       	ldd	r12, Y+4	; 0x04
    1162:	dd 80       	ldd	r13, Y+5	; 0x05
    1164:	c0 0e       	add	r12, r16
    1166:	d1 1e       	adc	r13, r17
    1168:	80 e0       	ldi	r24, 0x00	; 0
    116a:	0e 94 9a 06 	call	0xd34	; 0xd34 <SPI_transmit>
    116e:	f6 01       	movw	r30, r12
    1170:	80 83       	st	Z, r24
    1172:	8c 81       	ldd	r24, Y+4	; 0x04
    1174:	9d 81       	ldd	r25, Y+5	; 0x05
    1176:	01 96       	adiw	r24, 0x01	; 1
    1178:	9d 83       	std	Y+5, r25	; 0x05
    117a:	8c 83       	std	Y+4, r24	; 0x04
    117c:	08 97       	sbiw	r24, 0x08	; 8
    117e:	81 f7       	brne	.-32     	; 0x1160 <CAN_readRXbuf+0xa4>
    1180:	c4 9a       	sbi	0x18, 4	; 24
    1182:	99 81       	ldd	r25, Y+1	; 0x01
    1184:	93 ff       	sbrs	r25, 3
    1186:	0b c0       	rjmp	.+22     	; 0x119e <CAN_readRXbuf+0xe2>
    1188:	ea 81       	ldd	r30, Y+2	; 0x02
    118a:	4e 2f       	mov	r20, r30
    118c:	50 e0       	ldi	r21, 0x00	; 0
    118e:	60 e0       	ldi	r22, 0x00	; 0
    1190:	70 e0       	ldi	r23, 0x00	; 0
    1192:	fb 81       	ldd	r31, Y+3	; 0x03
    1194:	8f 2f       	mov	r24, r31
    1196:	90 e0       	ldi	r25, 0x00	; 0
    1198:	a0 e0       	ldi	r26, 0x00	; 0
    119a:	b0 e0       	ldi	r27, 0x00	; 0
    119c:	06 c0       	rjmp	.+12     	; 0x11aa <CAN_readRXbuf+0xee>
    119e:	80 e0       	ldi	r24, 0x00	; 0
    11a0:	90 e0       	ldi	r25, 0x00	; 0
    11a2:	dc 01       	movw	r26, r24
    11a4:	40 e0       	ldi	r20, 0x00	; 0
    11a6:	50 e0       	ldi	r21, 0x00	; 0
    11a8:	ba 01       	movw	r22, r20
    11aa:	f1 01       	movw	r30, r2
    11ac:	10 82       	st	Z, r1
    11ae:	11 82       	std	Z+1, r1	; 0x01
    11b0:	12 82       	std	Z+2, r1	; 0x02
    11b2:	13 82       	std	Z+3, r1	; 0x03
    11b4:	29 81       	ldd	r18, Y+1	; 0x01
    11b6:	23 70       	andi	r18, 0x03	; 3
    11b8:	a2 2b       	or	r26, r18
    11ba:	76 2f       	mov	r23, r22
    11bc:	65 2f       	mov	r22, r21
    11be:	54 2f       	mov	r21, r20
    11c0:	44 27       	eor	r20, r20
    11c2:	48 2b       	or	r20, r24
    11c4:	59 2b       	or	r21, r25
    11c6:	6a 2b       	or	r22, r26
    11c8:	7b 2b       	or	r23, r27
    11ca:	ab e0       	ldi	r26, 0x0B	; 11
    11cc:	44 0f       	add	r20, r20
    11ce:	55 1f       	adc	r21, r21
    11d0:	66 1f       	adc	r22, r22
    11d2:	77 1f       	adc	r23, r23
    11d4:	aa 95       	dec	r26
    11d6:	d1 f7       	brne	.-12     	; 0x11cc <CAN_readRXbuf+0x110>
    11d8:	b5 e0       	ldi	r27, 0x05	; 5
    11da:	76 94       	lsr	r7
    11dc:	67 94       	ror	r6
    11de:	57 94       	ror	r5
    11e0:	47 94       	ror	r4
    11e2:	ba 95       	dec	r27
    11e4:	d1 f7       	brne	.-12     	; 0x11da <CAN_readRXbuf+0x11e>
    11e6:	83 e0       	ldi	r24, 0x03	; 3
    11e8:	88 0c       	add	r8, r8
    11ea:	99 1c       	adc	r9, r9
    11ec:	aa 1c       	adc	r10, r10
    11ee:	bb 1c       	adc	r11, r11
    11f0:	8a 95       	dec	r24
    11f2:	d1 f7       	brne	.-12     	; 0x11e8 <CAN_readRXbuf+0x12c>
    11f4:	84 28       	or	r8, r4
    11f6:	95 28       	or	r9, r5
    11f8:	a6 28       	or	r10, r6
    11fa:	b7 28       	or	r11, r7
    11fc:	48 29       	or	r20, r8
    11fe:	59 29       	or	r21, r9
    1200:	6a 29       	or	r22, r10
    1202:	7b 29       	or	r23, r11
    1204:	40 83       	st	Z, r20
    1206:	51 83       	std	Z+1, r21	; 0x01
    1208:	62 83       	std	Z+2, r22	; 0x02
    120a:	73 83       	std	Z+3, r23	; 0x03
    120c:	f7 01       	movw	r30, r14
    120e:	10 82       	st	Z, r1
    1210:	8d e2       	ldi	r24, 0x2D	; 45
    1212:	0e 94 b9 06 	call	0xd72	; 0xd72 <CAN_read>
    1216:	80 7c       	andi	r24, 0xC0	; 192
    1218:	f7 01       	movw	r30, r14
    121a:	90 81       	ld	r25, Z
    121c:	89 2b       	or	r24, r25
    121e:	80 83       	st	Z, r24
    1220:	40 e0       	ldi	r20, 0x00	; 0
    1222:	60 ec       	ldi	r22, 0xC0	; 192
    1224:	8d e2       	ldi	r24, 0x2D	; 45
    1226:	0e 94 c8 06 	call	0xd90	; 0xd90 <CAN_bitModify>
    122a:	c8 01       	movw	r24, r16
    122c:	0f 90       	pop	r0
    122e:	0f 90       	pop	r0
    1230:	0f 90       	pop	r0
    1232:	0f 90       	pop	r0
    1234:	0f 90       	pop	r0
    1236:	df 91       	pop	r29
    1238:	cf 91       	pop	r28
    123a:	1f 91       	pop	r17
    123c:	0f 91       	pop	r16
    123e:	ff 90       	pop	r15
    1240:	ef 90       	pop	r14
    1242:	df 90       	pop	r13
    1244:	cf 90       	pop	r12
    1246:	bf 90       	pop	r11
    1248:	af 90       	pop	r10
    124a:	9f 90       	pop	r9
    124c:	8f 90       	pop	r8
    124e:	7f 90       	pop	r7
    1250:	6f 90       	pop	r6
    1252:	5f 90       	pop	r5
    1254:	4f 90       	pop	r4
    1256:	3f 90       	pop	r3
    1258:	2f 90       	pop	r2
    125a:	08 95       	ret

0000125c <CAN_readMessage>:
    125c:	cf 93       	push	r28
    125e:	df 93       	push	r29
    1260:	1f 92       	push	r1
    1262:	cd b7       	in	r28, 0x3d	; 61
    1264:	de b7       	in	r29, 0x3e	; 62
    1266:	19 82       	std	Y+1, r1	; 0x01
    1268:	40 91 77 01 	lds	r20, 0x0177	; 0x800177 <CANRWindex>
    126c:	60 91 77 01 	lds	r22, 0x0177	; 0x800177 <CANRWindex>
    1270:	90 91 77 01 	lds	r25, 0x0177	; 0x800177 <CANRWindex>
    1274:	8d e0       	ldi	r24, 0x0D	; 13
    1276:	84 9f       	mul	r24, r20
    1278:	a0 01       	movw	r20, r0
    127a:	11 24       	eor	r1, r1
    127c:	48 5e       	subi	r20, 0xE8	; 232
    127e:	5a 4f       	sbci	r21, 0xFA	; 250
    1280:	86 9f       	mul	r24, r22
    1282:	b0 01       	movw	r22, r0
    1284:	11 24       	eor	r1, r1
    1286:	67 5e       	subi	r22, 0xE7	; 231
    1288:	7a 4f       	sbci	r23, 0xFA	; 250
    128a:	89 9f       	mul	r24, r25
    128c:	c0 01       	movw	r24, r0
    128e:	11 24       	eor	r1, r1
    1290:	9e 01       	movw	r18, r28
    1292:	2f 5f       	subi	r18, 0xFF	; 255
    1294:	3f 4f       	sbci	r19, 0xFF	; 255
    1296:	8c 5e       	subi	r24, 0xEC	; 236
    1298:	9a 4f       	sbci	r25, 0xFA	; 250
    129a:	0e 94 5e 08 	call	0x10bc	; 0x10bc <CAN_readRXbuf>
    129e:	80 91 77 01 	lds	r24, 0x0177	; 0x800177 <CANRWindex>
    12a2:	8f 5f       	subi	r24, 0xFF	; 255
    12a4:	80 93 77 01 	sts	0x0177, r24	; 0x800177 <CANRWindex>
    12a8:	8a 30       	cpi	r24, 0x0A	; 10
    12aa:	11 f4       	brne	.+4      	; 0x12b0 <CAN_readMessage+0x54>
    12ac:	10 92 77 01 	sts	0x0177, r1	; 0x800177 <CANRWindex>
    12b0:	80 91 76 01 	lds	r24, 0x0176	; 0x800176 <CANRXcounter>
    12b4:	8f 5f       	subi	r24, 0xFF	; 255
    12b6:	80 93 76 01 	sts	0x0176, r24	; 0x800176 <CANRXcounter>
    12ba:	8a 30       	cpi	r24, 0x0A	; 10
    12bc:	19 f4       	brne	.+6      	; 0x12c4 <CAN_readMessage+0x68>
    12be:	10 92 76 01 	sts	0x0176, r1	; 0x800176 <CANRXcounter>
    12c2:	03 c0       	rjmp	.+6      	; 0x12ca <CAN_readMessage+0x6e>
    12c4:	89 81       	ldd	r24, Y+1	; 0x01
    12c6:	80 7c       	andi	r24, 0xC0	; 192
    12c8:	29 f0       	breq	.+10     	; 0x12d4 <CAN_readMessage+0x78>
    12ca:	85 e0       	ldi	r24, 0x05	; 5
    12cc:	80 93 63 01 	sts	0x0163, r24	; 0x800163 <CAN_ERR>
    12d0:	8f ef       	ldi	r24, 0xFF	; 255
    12d2:	01 c0       	rjmp	.+2      	; 0x12d6 <CAN_readMessage+0x7a>
    12d4:	81 e0       	ldi	r24, 0x01	; 1
    12d6:	0f 90       	pop	r0
    12d8:	df 91       	pop	r29
    12da:	cf 91       	pop	r28
    12dc:	08 95       	ret

000012de <CAN_setMask>:
    12de:	cf 92       	push	r12
    12e0:	df 92       	push	r13
    12e2:	ef 92       	push	r14
    12e4:	ff 92       	push	r15
    12e6:	cf 93       	push	r28
    12e8:	df 93       	push	r29
    12ea:	d8 2f       	mov	r29, r24
    12ec:	6a 01       	movw	r12, r20
    12ee:	7b 01       	movw	r14, r22
    12f0:	db 01       	movw	r26, r22
    12f2:	ca 01       	movw	r24, r20
    12f4:	2b e1       	ldi	r18, 0x1B	; 27
    12f6:	b6 95       	lsr	r27
    12f8:	a7 95       	ror	r26
    12fa:	97 95       	ror	r25
    12fc:	87 95       	ror	r24
    12fe:	2a 95       	dec	r18
    1300:	d1 f7       	brne	.-12     	; 0x12f6 <CAN_setMask+0x18>
    1302:	c8 2f       	mov	r28, r24
    1304:	c3 70       	andi	r28, 0x03	; 3
    1306:	84 2f       	mov	r24, r20
    1308:	82 95       	swap	r24
    130a:	88 0f       	add	r24, r24
    130c:	80 7e       	andi	r24, 0xE0	; 224
    130e:	c8 2b       	or	r28, r24
    1310:	c4 98       	cbi	0x18, 4	; 24
    1312:	82 e0       	ldi	r24, 0x02	; 2
    1314:	0e 94 9a 06 	call	0xd34	; 0xd34 <SPI_transmit>
    1318:	8d 2f       	mov	r24, r29
    131a:	0e 94 9a 06 	call	0xd34	; 0xd34 <SPI_transmit>
    131e:	d7 01       	movw	r26, r14
    1320:	c6 01       	movw	r24, r12
    1322:	33 e0       	ldi	r19, 0x03	; 3
    1324:	b6 95       	lsr	r27
    1326:	a7 95       	ror	r26
    1328:	97 95       	ror	r25
    132a:	87 95       	ror	r24
    132c:	3a 95       	dec	r19
    132e:	d1 f7       	brne	.-12     	; 0x1324 <CAN_setMask+0x46>
    1330:	0e 94 9a 06 	call	0xd34	; 0xd34 <SPI_transmit>
    1334:	8c 2f       	mov	r24, r28
    1336:	0e 94 9a 06 	call	0xd34	; 0xd34 <SPI_transmit>
    133a:	d7 01       	movw	r26, r14
    133c:	c6 01       	movw	r24, r12
    133e:	43 e1       	ldi	r20, 0x13	; 19
    1340:	b6 95       	lsr	r27
    1342:	a7 95       	ror	r26
    1344:	97 95       	ror	r25
    1346:	87 95       	ror	r24
    1348:	4a 95       	dec	r20
    134a:	d1 f7       	brne	.-12     	; 0x1340 <CAN_setMask+0x62>
    134c:	0e 94 9a 06 	call	0xd34	; 0xd34 <SPI_transmit>
    1350:	d7 01       	movw	r26, r14
    1352:	c6 01       	movw	r24, r12
    1354:	5b e0       	ldi	r21, 0x0B	; 11
    1356:	b6 95       	lsr	r27
    1358:	a7 95       	ror	r26
    135a:	97 95       	ror	r25
    135c:	87 95       	ror	r24
    135e:	5a 95       	dec	r21
    1360:	d1 f7       	brne	.-12     	; 0x1356 <CAN_setMask+0x78>
    1362:	0e 94 9a 06 	call	0xd34	; 0xd34 <SPI_transmit>
    1366:	c4 9a       	sbi	0x18, 4	; 24
    1368:	df 91       	pop	r29
    136a:	cf 91       	pop	r28
    136c:	ff 90       	pop	r15
    136e:	ef 90       	pop	r14
    1370:	df 90       	pop	r13
    1372:	cf 90       	pop	r12
    1374:	08 95       	ret

00001376 <CAN_setFilter>:
    1376:	cf 92       	push	r12
    1378:	df 92       	push	r13
    137a:	ef 92       	push	r14
    137c:	ff 92       	push	r15
    137e:	cf 93       	push	r28
    1380:	df 93       	push	r29
    1382:	d8 2f       	mov	r29, r24
    1384:	6a 01       	movw	r12, r20
    1386:	7b 01       	movw	r14, r22
    1388:	c4 2f       	mov	r28, r20
    138a:	c2 95       	swap	r28
    138c:	cc 0f       	add	r28, r28
    138e:	c0 7e       	andi	r28, 0xE0	; 224
    1390:	28 70       	andi	r18, 0x08	; 8
    1392:	c2 2b       	or	r28, r18
    1394:	8b e1       	ldi	r24, 0x1B	; 27
    1396:	76 95       	lsr	r23
    1398:	67 95       	ror	r22
    139a:	57 95       	ror	r21
    139c:	47 95       	ror	r20
    139e:	8a 95       	dec	r24
    13a0:	d1 f7       	brne	.-12     	; 0x1396 <CAN_setFilter+0x20>
    13a2:	43 70       	andi	r20, 0x03	; 3
    13a4:	c4 2b       	or	r28, r20
    13a6:	c4 98       	cbi	0x18, 4	; 24
    13a8:	82 e0       	ldi	r24, 0x02	; 2
    13aa:	0e 94 9a 06 	call	0xd34	; 0xd34 <SPI_transmit>
    13ae:	8d 2f       	mov	r24, r29
    13b0:	0e 94 9a 06 	call	0xd34	; 0xd34 <SPI_transmit>
    13b4:	d7 01       	movw	r26, r14
    13b6:	c6 01       	movw	r24, r12
    13b8:	23 e0       	ldi	r18, 0x03	; 3
    13ba:	b6 95       	lsr	r27
    13bc:	a7 95       	ror	r26
    13be:	97 95       	ror	r25
    13c0:	87 95       	ror	r24
    13c2:	2a 95       	dec	r18
    13c4:	d1 f7       	brne	.-12     	; 0x13ba <CAN_setFilter+0x44>
    13c6:	0e 94 9a 06 	call	0xd34	; 0xd34 <SPI_transmit>
    13ca:	8c 2f       	mov	r24, r28
    13cc:	0e 94 9a 06 	call	0xd34	; 0xd34 <SPI_transmit>
    13d0:	d7 01       	movw	r26, r14
    13d2:	c6 01       	movw	r24, r12
    13d4:	33 e1       	ldi	r19, 0x13	; 19
    13d6:	b6 95       	lsr	r27
    13d8:	a7 95       	ror	r26
    13da:	97 95       	ror	r25
    13dc:	87 95       	ror	r24
    13de:	3a 95       	dec	r19
    13e0:	d1 f7       	brne	.-12     	; 0x13d6 <CAN_setFilter+0x60>
    13e2:	0e 94 9a 06 	call	0xd34	; 0xd34 <SPI_transmit>
    13e6:	d7 01       	movw	r26, r14
    13e8:	c6 01       	movw	r24, r12
    13ea:	4b e0       	ldi	r20, 0x0B	; 11
    13ec:	b6 95       	lsr	r27
    13ee:	a7 95       	ror	r26
    13f0:	97 95       	ror	r25
    13f2:	87 95       	ror	r24
    13f4:	4a 95       	dec	r20
    13f6:	d1 f7       	brne	.-12     	; 0x13ec <CAN_setFilter+0x76>
    13f8:	0e 94 9a 06 	call	0xd34	; 0xd34 <SPI_transmit>
    13fc:	c4 9a       	sbi	0x18, 4	; 24
    13fe:	df 91       	pop	r29
    1400:	cf 91       	pop	r28
    1402:	ff 90       	pop	r15
    1404:	ef 90       	pop	r14
    1406:	df 90       	pop	r13
    1408:	cf 90       	pop	r12
    140a:	08 95       	ret

0000140c <interrupt_init>:
    140c:	8a 98       	cbi	0x11, 2	; 17
    140e:	92 9a       	sbi	0x12, 2	; 18
    1410:	85 b7       	in	r24, 0x35	; 53
    1412:	8c 7f       	andi	r24, 0xFC	; 252
    1414:	85 bf       	out	0x35, r24	; 53
    1416:	8b b7       	in	r24, 0x3b	; 59
    1418:	80 64       	ori	r24, 0x40	; 64
    141a:	8b bf       	out	0x3b, r24	; 59
    141c:	08 95       	ret

0000141e <timers_init>:
    141e:	1f bc       	out	0x2f, r1	; 47
    1420:	8a e0       	ldi	r24, 0x0A	; 10
    1422:	8e bd       	out	0x2e, r24	; 46
    1424:	1d bc       	out	0x2d, r1	; 45
    1426:	1c bc       	out	0x2c, r1	; 44
    1428:	17 bc       	out	0x27, r1	; 39
    142a:	16 bc       	out	0x26, r1	; 38
    142c:	87 e0       	ldi	r24, 0x07	; 7
    142e:	8b bd       	out	0x2b, r24	; 43
    1430:	80 ed       	ldi	r24, 0xD0	; 208
    1432:	8a bd       	out	0x2a, r24	; 42
    1434:	19 bc       	out	0x29, r1	; 41
    1436:	18 bc       	out	0x28, r1	; 40
    1438:	89 b7       	in	r24, 0x39	; 57
    143a:	80 61       	ori	r24, 0x10	; 16
    143c:	89 bf       	out	0x39, r24	; 57
    143e:	08 95       	ret

00001440 <CAN_init>:
    1440:	cf 93       	push	r28
    1442:	c8 2f       	mov	r28, r24
    1444:	0e 94 91 06 	call	0xd22	; 0xd22 <SPI_init>
    1448:	bc 9a       	sbi	0x17, 4	; 23
    144a:	c4 9a       	sbi	0x18, 4	; 24
    144c:	c4 98       	cbi	0x18, 4	; 24
    144e:	80 ec       	ldi	r24, 0xC0	; 192
    1450:	0e 94 9a 06 	call	0xd34	; 0xd34 <SPI_transmit>
    1454:	c4 9a       	sbi	0x18, 4	; 24
    1456:	40 e8       	ldi	r20, 0x80	; 128
    1458:	60 e8       	ldi	r22, 0x80	; 128
    145a:	89 e2       	ldi	r24, 0x29	; 41
    145c:	0e 94 c8 06 	call	0xd90	; 0xd90 <CAN_bitModify>
    1460:	65 e0       	ldi	r22, 0x05	; 5
    1462:	8a e2       	ldi	r24, 0x2A	; 42
    1464:	0e 94 e0 06 	call	0xdc0	; 0xdc0 <CAN_write>
    1468:	69 e8       	ldi	r22, 0x89	; 137
    146a:	89 e2       	ldi	r24, 0x29	; 41
    146c:	0e 94 e0 06 	call	0xdc0	; 0xdc0 <CAN_write>
    1470:	62 e0       	ldi	r22, 0x02	; 2
    1472:	88 e2       	ldi	r24, 0x28	; 40
    1474:	0e 94 e0 06 	call	0xdc0	; 0xdc0 <CAN_write>
    1478:	43 e0       	ldi	r20, 0x03	; 3
    147a:	63 e0       	ldi	r22, 0x03	; 3
    147c:	8b e2       	ldi	r24, 0x2B	; 43
    147e:	0e 94 c8 06 	call	0xd90	; 0xd90 <CAN_bitModify>
    1482:	4c 2f       	mov	r20, r28
    1484:	6f ef       	ldi	r22, 0xFF	; 255
    1486:	8f e0       	ldi	r24, 0x0F	; 15
    1488:	0e 94 c8 06 	call	0xd90	; 0xd90 <CAN_bitModify>
    148c:	8e e0       	ldi	r24, 0x0E	; 14
    148e:	0e 94 b9 06 	call	0xd72	; 0xd72 <CAN_read>
    1492:	80 7e       	andi	r24, 0xE0	; 224
    1494:	c8 13       	cpse	r28, r24
    1496:	02 c0       	rjmp	.+4      	; 0x149c <CAN_init+0x5c>
    1498:	c1 e0       	ldi	r28, 0x01	; 1
    149a:	01 c0       	rjmp	.+2      	; 0x149e <CAN_init+0x5e>
    149c:	cf ef       	ldi	r28, 0xFF	; 255
    149e:	44 e0       	ldi	r20, 0x04	; 4
    14a0:	64 e0       	ldi	r22, 0x04	; 4
    14a2:	80 e6       	ldi	r24, 0x60	; 96
    14a4:	0e 94 c8 06 	call	0xd90	; 0xd90 <CAN_bitModify>
    14a8:	8c 2f       	mov	r24, r28
    14aa:	cf 91       	pop	r28
    14ac:	08 95       	ret

000014ae <bki_init>:
    14ae:	cf 92       	push	r12
    14b0:	df 92       	push	r13
    14b2:	ef 92       	push	r14
    14b4:	ff 92       	push	r15
    14b6:	cf 93       	push	r28
    14b8:	f8 94       	cli
    14ba:	84 b3       	in	r24, 0x14	; 20
    14bc:	8f 71       	andi	r24, 0x1F	; 31
    14be:	84 bb       	out	0x14, r24	; 20
    14c0:	85 b3       	in	r24, 0x15	; 21
    14c2:	80 6e       	ori	r24, 0xE0	; 224
    14c4:	85 bb       	out	0x15, r24	; 21
    14c6:	81 b3       	in	r24, 0x11	; 17
    14c8:	87 7c       	andi	r24, 0xC7	; 199
    14ca:	81 bb       	out	0x11, r24	; 17
    14cc:	82 b3       	in	r24, 0x12	; 18
    14ce:	88 63       	ori	r24, 0x38	; 56
    14d0:	82 bb       	out	0x12, r24	; 18
    14d2:	d4 9a       	sbi	0x1a, 4	; 26
    14d4:	dc 98       	cbi	0x1b, 4	; 27
    14d6:	d5 9a       	sbi	0x1a, 5	; 26
    14d8:	dd 9a       	sbi	0x1b, 5	; 27
    14da:	8a b3       	in	r24, 0x1a	; 26
    14dc:	8f 60       	ori	r24, 0x0F	; 15
    14de:	8a bb       	out	0x1a, r24	; 26
    14e0:	8b b3       	in	r24, 0x1b	; 27
    14e2:	8f 60       	ori	r24, 0x0F	; 15
    14e4:	8b bb       	out	0x1b, r24	; 27
    14e6:	0e 94 d0 03 	call	0x7a0	; 0x7a0 <LCD_init>
    14ea:	0e 94 1c 04 	call	0x838	; 0x838 <LCD_visible>
    14ee:	0e 94 21 04 	call	0x842	; 0x842 <LCD_clr>
    14f2:	0e 94 a4 01 	call	0x348	; 0x348 <TWI_init>
    14f6:	8e e0       	ldi	r24, 0x0E	; 14
    14f8:	95 e0       	ldi	r25, 0x05	; 5
    14fa:	0e 94 d7 02 	call	0x5ae	; 0x5ae <rtc_get>
    14fe:	0e 94 4f 03 	call	0x69e	; 0x69e <rtc_check>
    1502:	87 ff       	sbrs	r24, 7
    1504:	03 c0       	rjmp	.+6      	; 0x150c <bki_init+0x5e>
    1506:	82 e0       	ldi	r24, 0x02	; 2
    1508:	80 93 67 01 	sts	0x0167, r24	; 0x800167 <ERROR>
    150c:	82 e0       	ldi	r24, 0x02	; 2
    150e:	90 e0       	ldi	r25, 0x00	; 0
    1510:	0e 94 57 21 	call	0x42ae	; 0x42ae <eeprom_read_dword>
    1514:	6b 01       	movw	r12, r22
    1516:	7c 01       	movw	r14, r24
    1518:	81 e0       	ldi	r24, 0x01	; 1
    151a:	90 e0       	ldi	r25, 0x00	; 0
    151c:	0e 94 4f 21 	call	0x429e	; 0x429e <eeprom_read_byte>
    1520:	c8 2f       	mov	r28, r24
    1522:	80 e0       	ldi	r24, 0x00	; 0
    1524:	90 e0       	ldi	r25, 0x00	; 0
    1526:	0e 94 4f 21 	call	0x429e	; 0x429e <eeprom_read_byte>
    152a:	a7 01       	movw	r20, r14
    152c:	96 01       	movw	r18, r12
    152e:	6c 2f       	mov	r22, r28
    1530:	0e 94 f9 1b 	call	0x37f2	; 0x37f2 <MODB_init>
    1534:	57 9a       	sbi	0x0a, 7	; 10
    1536:	0e 94 06 0a 	call	0x140c	; 0x140c <interrupt_init>
    153a:	0e 94 0f 0a 	call	0x141e	; 0x141e <timers_init>
    153e:	78 94       	sei
    1540:	2f ef       	ldi	r18, 0xFF	; 255
    1542:	89 e6       	ldi	r24, 0x69	; 105
    1544:	98 e1       	ldi	r25, 0x18	; 24
    1546:	21 50       	subi	r18, 0x01	; 1
    1548:	80 40       	sbci	r24, 0x00	; 0
    154a:	90 40       	sbci	r25, 0x00	; 0
    154c:	e1 f7       	brne	.-8      	; 0x1546 <bki_init+0x98>
    154e:	00 c0       	rjmp	.+0      	; 0x1550 <bki_init+0xa2>
    1550:	00 00       	nop
    1552:	80 e0       	ldi	r24, 0x00	; 0
    1554:	0e 94 20 0a 	call	0x1440	; 0x1440 <CAN_init>
    1558:	18 16       	cp	r1, r24
    155a:	1c f0       	brlt	.+6      	; 0x1562 <bki_init+0xb4>
    155c:	83 e0       	ldi	r24, 0x03	; 3
    155e:	80 93 67 01 	sts	0x0167, r24	; 0x800167 <ERROR>
    1562:	cf 91       	pop	r28
    1564:	ff 90       	pop	r15
    1566:	ef 90       	pop	r14
    1568:	df 90       	pop	r13
    156a:	cf 90       	pop	r12
    156c:	08 95       	ret

0000156e <ping>:
    156e:	0f 93       	push	r16
    1570:	cf 93       	push	r28
    1572:	df 93       	push	r29
    1574:	cd b7       	in	r28, 0x3d	; 61
    1576:	de b7       	in	r29, 0x3e	; 62
    1578:	27 97       	sbiw	r28, 0x07	; 7
    157a:	0f b6       	in	r0, 0x3f	; 63
    157c:	f8 94       	cli
    157e:	de bf       	out	0x3e, r29	; 62
    1580:	0f be       	out	0x3f, r0	; 63
    1582:	cd bf       	out	0x3d, r28	; 61
    1584:	81 e0       	ldi	r24, 0x01	; 1
    1586:	90 e0       	ldi	r25, 0x00	; 0
    1588:	39 e0       	ldi	r19, 0x09	; 9
    158a:	22 e0       	ldi	r18, 0x02	; 2
    158c:	38 9f       	mul	r19, r24
    158e:	f0 01       	movw	r30, r0
    1590:	39 9f       	mul	r19, r25
    1592:	f0 0d       	add	r31, r0
    1594:	11 24       	eor	r1, r1
    1596:	e1 58       	subi	r30, 0x81	; 129
    1598:	fe 4f       	sbci	r31, 0xFE	; 254
    159a:	20 87       	std	Z+8, r18	; 0x08
    159c:	01 96       	adiw	r24, 0x01	; 1
    159e:	83 36       	cpi	r24, 0x63	; 99
    15a0:	91 05       	cpc	r25, r1
    15a2:	a1 f7       	brne	.-24     	; 0x158c <ping+0x1e>
    15a4:	81 e0       	ldi	r24, 0x01	; 1
    15a6:	89 83       	std	Y+1, r24	; 0x01
    15a8:	80 91 10 05 	lds	r24, 0x0510	; 0x800510 <rtc+0x2>
    15ac:	8a 83       	std	Y+2, r24	; 0x02
    15ae:	80 91 0f 05 	lds	r24, 0x050F	; 0x80050f <rtc+0x1>
    15b2:	8b 83       	std	Y+3, r24	; 0x03
    15b4:	80 91 0e 05 	lds	r24, 0x050E	; 0x80050e <rtc>
    15b8:	8c 83       	std	Y+4, r24	; 0x04
    15ba:	80 91 11 05 	lds	r24, 0x0511	; 0x800511 <rtc+0x3>
    15be:	8d 83       	std	Y+5, r24	; 0x05
    15c0:	80 91 12 05 	lds	r24, 0x0512	; 0x800512 <rtc+0x4>
    15c4:	8e 83       	std	Y+6, r24	; 0x06
    15c6:	80 91 13 05 	lds	r24, 0x0513	; 0x800513 <rtc+0x5>
    15ca:	8f 83       	std	Y+7, r24	; 0x07
    15cc:	07 ef       	ldi	r16, 0xF7	; 247
    15ce:	9e 01       	movw	r18, r28
    15d0:	2f 5f       	subi	r18, 0xFF	; 255
    15d2:	3f 4f       	sbci	r19, 0xFF	; 255
    15d4:	47 e0       	ldi	r20, 0x07	; 7
    15d6:	60 e0       	ldi	r22, 0x00	; 0
    15d8:	70 e0       	ldi	r23, 0x00	; 0
    15da:	cb 01       	movw	r24, r22
    15dc:	0e 94 8c 07 	call	0xf18	; 0xf18 <CAN_loadTXbuf>
    15e0:	27 96       	adiw	r28, 0x07	; 7
    15e2:	0f b6       	in	r0, 0x3f	; 63
    15e4:	f8 94       	cli
    15e6:	de bf       	out	0x3e, r29	; 62
    15e8:	0f be       	out	0x3f, r0	; 63
    15ea:	cd bf       	out	0x3d, r28	; 61
    15ec:	df 91       	pop	r29
    15ee:	cf 91       	pop	r28
    15f0:	0f 91       	pop	r16
    15f2:	08 95       	ret

000015f4 <scansys>:
    15f4:	ef 92       	push	r14
    15f6:	ff 92       	push	r15
    15f8:	0f 93       	push	r16
    15fa:	1f 93       	push	r17
    15fc:	cf 93       	push	r28
    15fe:	df 93       	push	r29
    1600:	00 d0       	rcall	.+0      	; 0x1602 <scansys+0xe>
    1602:	00 d0       	rcall	.+0      	; 0x1604 <scansys+0x10>
    1604:	cd b7       	in	r28, 0x3d	; 61
    1606:	de b7       	in	r29, 0x3e	; 62
    1608:	80 91 69 01 	lds	r24, 0x0169	; 0x800169 <sys_state>
    160c:	80 61       	ori	r24, 0x10	; 16
    160e:	80 93 69 01 	sts	0x0169, r24	; 0x800169 <sys_state>
    1612:	01 e0       	ldi	r16, 0x01	; 1
    1614:	10 e0       	ldi	r17, 0x00	; 0
    1616:	99 e0       	ldi	r25, 0x09	; 9
    1618:	f9 2e       	mov	r15, r25
    161a:	60 e0       	ldi	r22, 0x00	; 0
    161c:	c8 01       	movw	r24, r16
    161e:	87 5f       	subi	r24, 0xF7	; 247
    1620:	9f 4f       	sbci	r25, 0xFF	; 255
    1622:	0e 94 63 21 	call	0x42c6	; 0x42c6 <eeprom_write_byte>
    1626:	f0 9e       	mul	r15, r16
    1628:	f0 01       	movw	r30, r0
    162a:	f1 9e       	mul	r15, r17
    162c:	f0 0d       	add	r31, r0
    162e:	11 24       	eor	r1, r1
    1630:	e1 58       	subi	r30, 0x81	; 129
    1632:	fe 4f       	sbci	r31, 0xFE	; 254
    1634:	17 82       	std	Z+7, r1	; 0x07
    1636:	0f 5f       	subi	r16, 0xFF	; 255
    1638:	1f 4f       	sbci	r17, 0xFF	; 255
    163a:	03 36       	cpi	r16, 0x63	; 99
    163c:	11 05       	cpc	r17, r1
    163e:	69 f7       	brne	.-38     	; 0x161a <scansys+0x26>
    1640:	e1 99       	sbic	0x1c, 1	; 28
    1642:	fe cf       	rjmp	.-4      	; 0x1640 <scansys+0x4c>
    1644:	0e 94 b7 0a 	call	0x156e	; 0x156e <ping>
    1648:	2f ef       	ldi	r18, 0xFF	; 255
    164a:	81 ee       	ldi	r24, 0xE1	; 225
    164c:	94 e0       	ldi	r25, 0x04	; 4
    164e:	21 50       	subi	r18, 0x01	; 1
    1650:	80 40       	sbci	r24, 0x00	; 0
    1652:	90 40       	sbci	r25, 0x00	; 0
    1654:	e1 f7       	brne	.-8      	; 0x164e <scansys+0x5a>
    1656:	00 c0       	rjmp	.+0      	; 0x1658 <scansys+0x64>
    1658:	00 00       	nop
    165a:	0e 94 21 04 	call	0x842	; 0x842 <LCD_clr>
    165e:	6c e0       	ldi	r22, 0x0C	; 12
    1660:	83 e4       	ldi	r24, 0x43	; 67
    1662:	91 e0       	ldi	r25, 0x01	; 1
    1664:	0e 94 55 06 	call	0xcaa	; 0xcaa <LCD_puts_P>
    1668:	18 e0       	ldi	r17, 0x08	; 8
    166a:	8e e2       	ldi	r24, 0x2E	; 46
    166c:	0e 94 42 04 	call	0x884	; 0x884 <LCD_putchar>
    1670:	2f ef       	ldi	r18, 0xFF	; 255
    1672:	89 e6       	ldi	r24, 0x69	; 105
    1674:	98 e1       	ldi	r25, 0x18	; 24
    1676:	21 50       	subi	r18, 0x01	; 1
    1678:	80 40       	sbci	r24, 0x00	; 0
    167a:	90 40       	sbci	r25, 0x00	; 0
    167c:	e1 f7       	brne	.-8      	; 0x1676 <scansys+0x82>
    167e:	00 c0       	rjmp	.+0      	; 0x1680 <scansys+0x8c>
    1680:	00 00       	nop
    1682:	11 50       	subi	r17, 0x01	; 1
    1684:	91 f7       	brne	.-28     	; 0x166a <scansys+0x76>
    1686:	10 92 69 01 	sts	0x0169, r1	; 0x800169 <sys_state>
    168a:	01 e0       	ldi	r16, 0x01	; 1
    168c:	10 e0       	ldi	r17, 0x00	; 0
    168e:	f1 2c       	mov	r15, r1
    1690:	89 e0       	ldi	r24, 0x09	; 9
    1692:	e8 2e       	mov	r14, r24
    1694:	e0 9e       	mul	r14, r16
    1696:	f0 01       	movw	r30, r0
    1698:	e1 9e       	mul	r14, r17
    169a:	f0 0d       	add	r31, r0
    169c:	11 24       	eor	r1, r1
    169e:	e1 58       	subi	r30, 0x81	; 129
    16a0:	fe 4f       	sbci	r31, 0xFE	; 254
    16a2:	67 81       	ldd	r22, Z+7	; 0x07
    16a4:	60 13       	cpse	r22, r16
    16a6:	06 c0       	rjmp	.+12     	; 0x16b4 <scansys+0xc0>
    16a8:	c8 01       	movw	r24, r16
    16aa:	87 5f       	subi	r24, 0xF7	; 247
    16ac:	9f 4f       	sbci	r25, 0xFF	; 255
    16ae:	0e 94 63 21 	call	0x42c6	; 0x42c6 <eeprom_write_byte>
    16b2:	f3 94       	inc	r15
    16b4:	0f 5f       	subi	r16, 0xFF	; 255
    16b6:	1f 4f       	sbci	r17, 0xFF	; 255
    16b8:	03 36       	cpi	r16, 0x63	; 99
    16ba:	11 05       	cpc	r17, r1
    16bc:	59 f7       	brne	.-42     	; 0x1694 <scansys+0xa0>
    16be:	62 e0       	ldi	r22, 0x02	; 2
    16c0:	80 e0       	ldi	r24, 0x00	; 0
    16c2:	0e 94 2f 04 	call	0x85e	; 0x85e <LCD_gotoXY>
    16c6:	60 e1       	ldi	r22, 0x10	; 16
    16c8:	83 e9       	ldi	r24, 0x93	; 147
    16ca:	90 e0       	ldi	r25, 0x00	; 0
    16cc:	0e 94 55 06 	call	0xcaa	; 0xcaa <LCD_puts_P>
    16d0:	4a e0       	ldi	r20, 0x0A	; 10
    16d2:	be 01       	movw	r22, r28
    16d4:	6f 5f       	subi	r22, 0xFF	; 255
    16d6:	7f 4f       	sbci	r23, 0xFF	; 255
    16d8:	8f 2d       	mov	r24, r15
    16da:	90 e0       	ldi	r25, 0x00	; 0
    16dc:	0e 94 36 1e 	call	0x3c6c	; 0x3c6c <__itoa_ncheck>
    16e0:	63 e0       	ldi	r22, 0x03	; 3
    16e2:	0e 94 d0 04 	call	0x9a0	; 0x9a0 <LCD_puts>
    16e6:	0e 94 b7 0a 	call	0x156e	; 0x156e <ping>
    16ea:	2f ef       	ldi	r18, 0xFF	; 255
    16ec:	87 ea       	ldi	r24, 0xA7	; 167
    16ee:	91 e6       	ldi	r25, 0x61	; 97
    16f0:	21 50       	subi	r18, 0x01	; 1
    16f2:	80 40       	sbci	r24, 0x00	; 0
    16f4:	90 40       	sbci	r25, 0x00	; 0
    16f6:	e1 f7       	brne	.-8      	; 0x16f0 <scansys+0xfc>
    16f8:	00 c0       	rjmp	.+0      	; 0x16fa <scansys+0x106>
    16fa:	00 00       	nop
    16fc:	80 e3       	ldi	r24, 0x30	; 48
    16fe:	95 e7       	ldi	r25, 0x75	; 117
    1700:	90 93 7e 01 	sts	0x017E, r25	; 0x80017e <menuExit+0x1>
    1704:	80 93 7d 01 	sts	0x017D, r24	; 0x80017d <menuExit>
    1708:	10 92 67 01 	sts	0x0167, r1	; 0x800167 <ERROR>
    170c:	0f 90       	pop	r0
    170e:	0f 90       	pop	r0
    1710:	0f 90       	pop	r0
    1712:	0f 90       	pop	r0
    1714:	df 91       	pop	r29
    1716:	cf 91       	pop	r28
    1718:	1f 91       	pop	r17
    171a:	0f 91       	pop	r16
    171c:	ff 90       	pop	r15
    171e:	ef 90       	pop	r14
    1720:	08 95       	ret

00001722 <send_read_arch>:
    1722:	0f 93       	push	r16
    1724:	1f 93       	push	r17
    1726:	cf 93       	push	r28
    1728:	df 93       	push	r29
    172a:	00 d0       	rcall	.+0      	; 0x172c <send_read_arch+0xa>
    172c:	cd b7       	in	r28, 0x3d	; 61
    172e:	de b7       	in	r29, 0x3e	; 62
    1730:	16 2f       	mov	r17, r22
    1732:	81 30       	cpi	r24, 0x01	; 1
    1734:	11 f0       	breq	.+4      	; 0x173a <send_read_arch+0x18>
    1736:	85 e0       	ldi	r24, 0x05	; 5
    1738:	01 c0       	rjmp	.+2      	; 0x173c <send_read_arch+0x1a>
    173a:	84 e0       	ldi	r24, 0x04	; 4
    173c:	89 83       	std	Y+1, r24	; 0x01
    173e:	89 e0       	ldi	r24, 0x09	; 9
    1740:	18 9f       	mul	r17, r24
    1742:	f0 01       	movw	r30, r0
    1744:	11 24       	eor	r1, r1
    1746:	e1 58       	subi	r30, 0x81	; 129
    1748:	fe 4f       	sbci	r31, 0xFE	; 254
    174a:	82 e0       	ldi	r24, 0x02	; 2
    174c:	80 87       	std	Z+8, r24	; 0x08
    174e:	4a 83       	std	Y+2, r20	; 0x02
    1750:	61 2f       	mov	r22, r17
    1752:	70 e0       	ldi	r23, 0x00	; 0
    1754:	80 e0       	ldi	r24, 0x00	; 0
    1756:	90 e0       	ldi	r25, 0x00	; 0
    1758:	07 ef       	ldi	r16, 0xF7	; 247
    175a:	9e 01       	movw	r18, r28
    175c:	2f 5f       	subi	r18, 0xFF	; 255
    175e:	3f 4f       	sbci	r19, 0xFF	; 255
    1760:	42 e0       	ldi	r20, 0x02	; 2
    1762:	0e 94 8c 07 	call	0xf18	; 0xf18 <CAN_loadTXbuf>
    1766:	81 2f       	mov	r24, r17
    1768:	0e 94 71 01 	call	0x2e2	; 0x2e2 <checkTOUT>
    176c:	0f 90       	pop	r0
    176e:	0f 90       	pop	r0
    1770:	df 91       	pop	r29
    1772:	cf 91       	pop	r28
    1774:	1f 91       	pop	r17
    1776:	0f 91       	pop	r16
    1778:	08 95       	ret

0000177a <send_prog>:
    177a:	0f 93       	push	r16
    177c:	1f 93       	push	r17
    177e:	cf 93       	push	r28
    1780:	df 93       	push	r29
    1782:	00 d0       	rcall	.+0      	; 0x1784 <send_prog+0xa>
    1784:	00 d0       	rcall	.+0      	; 0x1786 <send_prog+0xc>
    1786:	00 d0       	rcall	.+0      	; 0x1788 <send_prog+0xe>
    1788:	cd b7       	in	r28, 0x3d	; 61
    178a:	de b7       	in	r29, 0x3e	; 62
    178c:	18 2f       	mov	r17, r24
    178e:	86 e0       	ldi	r24, 0x06	; 6
    1790:	9e 01       	movw	r18, r28
    1792:	2f 5f       	subi	r18, 0xFF	; 255
    1794:	3f 4f       	sbci	r19, 0xFF	; 255
    1796:	f9 01       	movw	r30, r18
    1798:	98 2f       	mov	r25, r24
    179a:	11 92       	st	Z+, r1
    179c:	9a 95       	dec	r25
    179e:	e9 f7       	brne	.-6      	; 0x179a <send_prog+0x20>
    17a0:	89 83       	std	Y+1, r24	; 0x01
    17a2:	61 15       	cp	r22, r1
    17a4:	71 05       	cpc	r23, r1
    17a6:	61 f4       	brne	.+24     	; 0x17c0 <send_prog+0x46>
    17a8:	89 e0       	ldi	r24, 0x09	; 9
    17aa:	18 9f       	mul	r17, r24
    17ac:	f0 01       	movw	r30, r0
    17ae:	11 24       	eor	r1, r1
    17b0:	e1 58       	subi	r30, 0x81	; 129
    17b2:	fe 4f       	sbci	r31, 0xFE	; 254
    17b4:	82 e0       	ldi	r24, 0x02	; 2
    17b6:	80 87       	std	Z+8, r24	; 0x08
    17b8:	67 2b       	or	r22, r23
    17ba:	79 f4       	brne	.+30     	; 0x17da <send_prog+0x60>
    17bc:	41 e0       	ldi	r20, 0x01	; 1
    17be:	0e c0       	rjmp	.+28     	; 0x17dc <send_prog+0x62>
    17c0:	f9 01       	movw	r30, r18
    17c2:	80 e0       	ldi	r24, 0x00	; 0
    17c4:	90 e0       	ldi	r25, 0x00	; 0
    17c6:	db 01       	movw	r26, r22
    17c8:	a8 0f       	add	r26, r24
    17ca:	b9 1f       	adc	r27, r25
    17cc:	4c 91       	ld	r20, X
    17ce:	41 93       	st	Z+, r20
    17d0:	01 96       	adiw	r24, 0x01	; 1
    17d2:	86 30       	cpi	r24, 0x06	; 6
    17d4:	91 05       	cpc	r25, r1
    17d6:	b9 f7       	brne	.-18     	; 0x17c6 <send_prog+0x4c>
    17d8:	e7 cf       	rjmp	.-50     	; 0x17a8 <send_prog+0x2e>
    17da:	46 e0       	ldi	r20, 0x06	; 6
    17dc:	81 2f       	mov	r24, r17
    17de:	90 e0       	ldi	r25, 0x00	; 0
    17e0:	a0 e0       	ldi	r26, 0x00	; 0
    17e2:	b0 e0       	ldi	r27, 0x00	; 0
    17e4:	07 ef       	ldi	r16, 0xF7	; 247
    17e6:	bc 01       	movw	r22, r24
    17e8:	cd 01       	movw	r24, r26
    17ea:	0e 94 8c 07 	call	0xf18	; 0xf18 <CAN_loadTXbuf>
    17ee:	11 23       	and	r17, r17
    17f0:	21 f0       	breq	.+8      	; 0x17fa <send_prog+0x80>
    17f2:	81 2f       	mov	r24, r17
    17f4:	0e 94 71 01 	call	0x2e2	; 0x2e2 <checkTOUT>
    17f8:	01 c0       	rjmp	.+2      	; 0x17fc <send_prog+0x82>
    17fa:	81 e0       	ldi	r24, 0x01	; 1
    17fc:	26 96       	adiw	r28, 0x06	; 6
    17fe:	0f b6       	in	r0, 0x3f	; 63
    1800:	f8 94       	cli
    1802:	de bf       	out	0x3e, r29	; 62
    1804:	0f be       	out	0x3f, r0	; 63
    1806:	cd bf       	out	0x3d, r28	; 61
    1808:	df 91       	pop	r29
    180a:	cf 91       	pop	r28
    180c:	1f 91       	pop	r17
    180e:	0f 91       	pop	r16
    1810:	08 95       	ret

00001812 <aks_for_logic>:
    1812:	0f 93       	push	r16
    1814:	1f 93       	push	r17
    1816:	cf 93       	push	r28
    1818:	df 93       	push	r29
    181a:	00 d0       	rcall	.+0      	; 0x181c <aks_for_logic+0xa>
    181c:	00 d0       	rcall	.+0      	; 0x181e <aks_for_logic+0xc>
    181e:	00 d0       	rcall	.+0      	; 0x1820 <aks_for_logic+0xe>
    1820:	cd b7       	in	r28, 0x3d	; 61
    1822:	de b7       	in	r29, 0x3e	; 62
    1824:	18 2f       	mov	r17, r24
    1826:	86 e0       	ldi	r24, 0x06	; 6
    1828:	9e 01       	movw	r18, r28
    182a:	2f 5f       	subi	r18, 0xFF	; 255
    182c:	3f 4f       	sbci	r19, 0xFF	; 255
    182e:	f9 01       	movw	r30, r18
    1830:	98 2f       	mov	r25, r24
    1832:	11 92       	st	Z+, r1
    1834:	9a 95       	dec	r25
    1836:	e9 f7       	brne	.-6      	; 0x1832 <aks_for_logic+0x20>
    1838:	89 83       	std	Y+1, r24	; 0x01
    183a:	89 e0       	ldi	r24, 0x09	; 9
    183c:	18 9f       	mul	r17, r24
    183e:	f0 01       	movw	r30, r0
    1840:	11 24       	eor	r1, r1
    1842:	e1 58       	subi	r30, 0x81	; 129
    1844:	fe 4f       	sbci	r31, 0xFE	; 254
    1846:	82 e0       	ldi	r24, 0x02	; 2
    1848:	80 87       	std	Z+8, r24	; 0x08
    184a:	61 2f       	mov	r22, r17
    184c:	70 e0       	ldi	r23, 0x00	; 0
    184e:	80 e0       	ldi	r24, 0x00	; 0
    1850:	90 e0       	ldi	r25, 0x00	; 0
    1852:	07 ef       	ldi	r16, 0xF7	; 247
    1854:	42 e0       	ldi	r20, 0x02	; 2
    1856:	0e 94 8c 07 	call	0xf18	; 0xf18 <CAN_loadTXbuf>
    185a:	11 23       	and	r17, r17
    185c:	21 f0       	breq	.+8      	; 0x1866 <aks_for_logic+0x54>
    185e:	81 2f       	mov	r24, r17
    1860:	0e 94 71 01 	call	0x2e2	; 0x2e2 <checkTOUT>
    1864:	01 c0       	rjmp	.+2      	; 0x1868 <aks_for_logic+0x56>
    1866:	81 e0       	ldi	r24, 0x01	; 1
    1868:	26 96       	adiw	r28, 0x06	; 6
    186a:	0f b6       	in	r0, 0x3f	; 63
    186c:	f8 94       	cli
    186e:	de bf       	out	0x3e, r29	; 62
    1870:	0f be       	out	0x3f, r0	; 63
    1872:	cd bf       	out	0x3d, r28	; 61
    1874:	df 91       	pop	r29
    1876:	cf 91       	pop	r28
    1878:	1f 91       	pop	r17
    187a:	0f 91       	pop	r16
    187c:	08 95       	ret

0000187e <send_cmd>:
    187e:	0f 93       	push	r16
    1880:	1f 93       	push	r17
    1882:	cf 93       	push	r28
    1884:	df 93       	push	r29
    1886:	1f 92       	push	r1
    1888:	cd b7       	in	r28, 0x3d	; 61
    188a:	de b7       	in	r29, 0x3e	; 62
    188c:	18 2f       	mov	r17, r24
    188e:	69 83       	std	Y+1, r22	; 0x01
    1890:	89 e0       	ldi	r24, 0x09	; 9
    1892:	18 9f       	mul	r17, r24
    1894:	f0 01       	movw	r30, r0
    1896:	11 24       	eor	r1, r1
    1898:	e1 58       	subi	r30, 0x81	; 129
    189a:	fe 4f       	sbci	r31, 0xFE	; 254
    189c:	82 e0       	ldi	r24, 0x02	; 2
    189e:	80 87       	std	Z+8, r24	; 0x08
    18a0:	61 2f       	mov	r22, r17
    18a2:	70 e0       	ldi	r23, 0x00	; 0
    18a4:	80 e0       	ldi	r24, 0x00	; 0
    18a6:	90 e0       	ldi	r25, 0x00	; 0
    18a8:	07 ef       	ldi	r16, 0xF7	; 247
    18aa:	9e 01       	movw	r18, r28
    18ac:	2f 5f       	subi	r18, 0xFF	; 255
    18ae:	3f 4f       	sbci	r19, 0xFF	; 255
    18b0:	41 e0       	ldi	r20, 0x01	; 1
    18b2:	0e 94 8c 07 	call	0xf18	; 0xf18 <CAN_loadTXbuf>
    18b6:	89 81       	ldd	r24, Y+1	; 0x01
    18b8:	82 30       	cpi	r24, 0x02	; 2
    18ba:	21 f0       	breq	.+8      	; 0x18c4 <send_cmd+0x46>
    18bc:	81 2f       	mov	r24, r17
    18be:	0e 94 71 01 	call	0x2e2	; 0x2e2 <checkTOUT>
    18c2:	01 c0       	rjmp	.+2      	; 0x18c6 <send_cmd+0x48>
    18c4:	81 e0       	ldi	r24, 0x01	; 1
    18c6:	0f 90       	pop	r0
    18c8:	df 91       	pop	r29
    18ca:	cf 91       	pop	r28
    18cc:	1f 91       	pop	r17
    18ce:	0f 91       	pop	r16
    18d0:	08 95       	ret

000018d2 <__vector_1>:
    18d2:	1f 92       	push	r1
    18d4:	0f 92       	push	r0
    18d6:	0f b6       	in	r0, 0x3f	; 63
    18d8:	0f 92       	push	r0
    18da:	11 24       	eor	r1, r1
    18dc:	8f 92       	push	r8
    18de:	9f 92       	push	r9
    18e0:	af 92       	push	r10
    18e2:	bf 92       	push	r11
    18e4:	cf 92       	push	r12
    18e6:	df 92       	push	r13
    18e8:	ef 92       	push	r14
    18ea:	ff 92       	push	r15
    18ec:	2f 93       	push	r18
    18ee:	3f 93       	push	r19
    18f0:	4f 93       	push	r20
    18f2:	5f 93       	push	r21
    18f4:	6f 93       	push	r22
    18f6:	7f 93       	push	r23
    18f8:	8f 93       	push	r24
    18fa:	9f 93       	push	r25
    18fc:	af 93       	push	r26
    18fe:	bf 93       	push	r27
    1900:	ef 93       	push	r30
    1902:	ff 93       	push	r31
    1904:	cf 93       	push	r28
    1906:	df 93       	push	r29
    1908:	cd b7       	in	r28, 0x3d	; 61
    190a:	de b7       	in	r29, 0x3e	; 62
    190c:	2e 97       	sbiw	r28, 0x0e	; 14
    190e:	de bf       	out	0x3e, r29	; 62
    1910:	cd bf       	out	0x3d, r28	; 61
    1912:	9e 01       	movw	r18, r28
    1914:	22 5f       	subi	r18, 0xF2	; 242
    1916:	3f 4f       	sbci	r19, 0xFF	; 255
    1918:	ae 01       	movw	r20, r28
    191a:	4b 5f       	subi	r20, 0xFB	; 251
    191c:	5f 4f       	sbci	r21, 0xFF	; 255
    191e:	be 01       	movw	r22, r28
    1920:	6a 5f       	subi	r22, 0xFA	; 250
    1922:	7f 4f       	sbci	r23, 0xFF	; 255
    1924:	ce 01       	movw	r24, r28
    1926:	01 96       	adiw	r24, 0x01	; 1
    1928:	0e 94 5e 08 	call	0x10bc	; 0x10bc <CAN_readRXbuf>
    192c:	80 91 69 01 	lds	r24, 0x0169	; 0x800169 <sys_state>
    1930:	89 80       	ldd	r8, Y+1	; 0x01
    1932:	9a 80       	ldd	r9, Y+2	; 0x02
    1934:	ab 80       	ldd	r10, Y+3	; 0x03
    1936:	bc 80       	ldd	r11, Y+4	; 0x04
    1938:	84 ff       	sbrs	r24, 4
    193a:	11 c0       	rjmp	.+34     	; 0x195e <__vector_1+0x8c>
    193c:	d5 01       	movw	r26, r10
    193e:	c4 01       	movw	r24, r8
    1940:	8f 77       	andi	r24, 0x7F	; 127
    1942:	99 27       	eor	r25, r25
    1944:	aa 27       	eor	r26, r26
    1946:	bb 27       	eor	r27, r27
    1948:	29 e0       	ldi	r18, 0x09	; 9
    194a:	28 9f       	mul	r18, r24
    194c:	f0 01       	movw	r30, r0
    194e:	29 9f       	mul	r18, r25
    1950:	f0 0d       	add	r31, r0
    1952:	11 24       	eor	r1, r1
    1954:	e1 58       	subi	r30, 0x81	; 129
    1956:	fe 4f       	sbci	r31, 0xFE	; 254
    1958:	88 2d       	mov	r24, r8
    195a:	8f 77       	andi	r24, 0x7F	; 127
    195c:	87 83       	std	Z+7, r24	; 0x07
    195e:	75 01       	movw	r14, r10
    1960:	64 01       	movw	r12, r8
    1962:	e8 94       	clt
    1964:	c7 f8       	bld	r12, 7
    1966:	dd 24       	eor	r13, r13
    1968:	ee 24       	eor	r14, r14
    196a:	ff 24       	eor	r15, r15
    196c:	c6 01       	movw	r24, r12
    196e:	87 5f       	subi	r24, 0xF7	; 247
    1970:	9f 4f       	sbci	r25, 0xFF	; 255
    1972:	0e 94 4f 21 	call	0x429e	; 0x429e <eeprom_read_byte>
    1976:	90 e0       	ldi	r25, 0x00	; 0
    1978:	a0 e0       	ldi	r26, 0x00	; 0
    197a:	b0 e0       	ldi	r27, 0x00	; 0
    197c:	c8 16       	cp	r12, r24
    197e:	d9 06       	cpc	r13, r25
    1980:	ea 06       	cpc	r14, r26
    1982:	fb 06       	cpc	r15, r27
    1984:	21 f0       	breq	.+8      	; 0x198e <__vector_1+0xbc>
    1986:	84 e0       	ldi	r24, 0x04	; 4
    1988:	80 93 67 01 	sts	0x0167, r24	; 0x800167 <ERROR>
    198c:	40 c0       	rjmp	.+128    	; 0x1a0e <__vector_1+0x13c>
    198e:	89 e0       	ldi	r24, 0x09	; 9
    1990:	8c 9d       	mul	r24, r12
    1992:	f0 01       	movw	r30, r0
    1994:	8d 9d       	mul	r24, r13
    1996:	f0 0d       	add	r31, r0
    1998:	11 24       	eor	r1, r1
    199a:	e1 58       	subi	r30, 0x81	; 129
    199c:	fe 4f       	sbci	r31, 0xFE	; 254
    199e:	80 85       	ldd	r24, Z+8	; 0x08
    19a0:	84 60       	ori	r24, 0x04	; 4
    19a2:	80 87       	std	Z+8, r24	; 0x08
    19a4:	92 fe       	sbrs	r9, 2
    19a6:	03 c0       	rjmp	.+6      	; 0x19ae <__vector_1+0xdc>
    19a8:	80 85       	ldd	r24, Z+8	; 0x08
    19aa:	80 62       	ori	r24, 0x20	; 32
    19ac:	80 87       	std	Z+8, r24	; 0x08
    19ae:	91 fc       	sbrc	r9, 1
    19b0:	0b c0       	rjmp	.+22     	; 0x19c8 <__vector_1+0xf6>
    19b2:	89 e0       	ldi	r24, 0x09	; 9
    19b4:	8c 9d       	mul	r24, r12
    19b6:	f0 01       	movw	r30, r0
    19b8:	8d 9d       	mul	r24, r13
    19ba:	f0 0d       	add	r31, r0
    19bc:	11 24       	eor	r1, r1
    19be:	e1 58       	subi	r30, 0x81	; 129
    19c0:	fe 4f       	sbci	r31, 0xFE	; 254
    19c2:	80 85       	ldd	r24, Z+8	; 0x08
    19c4:	81 60       	ori	r24, 0x01	; 1
    19c6:	80 87       	std	Z+8, r24	; 0x08
    19c8:	90 fe       	sbrs	r9, 0
    19ca:	0b c0       	rjmp	.+22     	; 0x19e2 <__vector_1+0x110>
    19cc:	89 e0       	ldi	r24, 0x09	; 9
    19ce:	8c 9d       	mul	r24, r12
    19d0:	f0 01       	movw	r30, r0
    19d2:	8d 9d       	mul	r24, r13
    19d4:	f0 0d       	add	r31, r0
    19d6:	11 24       	eor	r1, r1
    19d8:	e1 58       	subi	r30, 0x81	; 129
    19da:	fe 4f       	sbci	r31, 0xFE	; 254
    19dc:	80 85       	ldd	r24, Z+8	; 0x08
    19de:	8d 7f       	andi	r24, 0xFD	; 253
    19e0:	80 87       	std	Z+8, r24	; 0x08
    19e2:	4d 81       	ldd	r20, Y+5	; 0x05
    19e4:	fe 01       	movw	r30, r28
    19e6:	36 96       	adiw	r30, 0x06	; 6
    19e8:	80 e0       	ldi	r24, 0x00	; 0
    19ea:	90 e0       	ldi	r25, 0x00	; 0
    19ec:	59 e0       	ldi	r21, 0x09	; 9
    19ee:	5c 9d       	mul	r21, r12
    19f0:	90 01       	movw	r18, r0
    19f2:	5d 9d       	mul	r21, r13
    19f4:	30 0d       	add	r19, r0
    19f6:	11 24       	eor	r1, r1
    19f8:	21 58       	subi	r18, 0x81	; 129
    19fa:	3e 4f       	sbci	r19, 0xFE	; 254
    19fc:	84 17       	cp	r24, r20
    19fe:	38 f4       	brcc	.+14     	; 0x1a0e <__vector_1+0x13c>
    1a00:	51 91       	ld	r21, Z+
    1a02:	d9 01       	movw	r26, r18
    1a04:	a8 0f       	add	r26, r24
    1a06:	b9 1f       	adc	r27, r25
    1a08:	5c 93       	st	X, r21
    1a0a:	01 96       	adiw	r24, 0x01	; 1
    1a0c:	f7 cf       	rjmp	.-18     	; 0x19fc <__vector_1+0x12a>
    1a0e:	2e 96       	adiw	r28, 0x0e	; 14
    1a10:	0f b6       	in	r0, 0x3f	; 63
    1a12:	f8 94       	cli
    1a14:	de bf       	out	0x3e, r29	; 62
    1a16:	0f be       	out	0x3f, r0	; 63
    1a18:	cd bf       	out	0x3d, r28	; 61
    1a1a:	df 91       	pop	r29
    1a1c:	cf 91       	pop	r28
    1a1e:	ff 91       	pop	r31
    1a20:	ef 91       	pop	r30
    1a22:	bf 91       	pop	r27
    1a24:	af 91       	pop	r26
    1a26:	9f 91       	pop	r25
    1a28:	8f 91       	pop	r24
    1a2a:	7f 91       	pop	r23
    1a2c:	6f 91       	pop	r22
    1a2e:	5f 91       	pop	r21
    1a30:	4f 91       	pop	r20
    1a32:	3f 91       	pop	r19
    1a34:	2f 91       	pop	r18
    1a36:	ff 90       	pop	r15
    1a38:	ef 90       	pop	r14
    1a3a:	df 90       	pop	r13
    1a3c:	cf 90       	pop	r12
    1a3e:	bf 90       	pop	r11
    1a40:	af 90       	pop	r10
    1a42:	9f 90       	pop	r9
    1a44:	8f 90       	pop	r8
    1a46:	0f 90       	pop	r0
    1a48:	0f be       	out	0x3f, r0	; 63
    1a4a:	0f 90       	pop	r0
    1a4c:	1f 90       	pop	r1
    1a4e:	18 95       	reti

00001a50 <scanID>:
    1a50:	1f 93       	push	r17
    1a52:	cf 93       	push	r28
    1a54:	df 93       	push	r29
    1a56:	18 2f       	mov	r17, r24
    1a58:	cc e6       	ldi	r28, 0x6C	; 108
    1a5a:	d0 e0       	ldi	r29, 0x00	; 0
    1a5c:	ce 01       	movw	r24, r28
    1a5e:	0e 94 4f 21 	call	0x429e	; 0x429e <eeprom_read_byte>
    1a62:	81 17       	cp	r24, r17
    1a64:	39 f0       	breq	.+14     	; 0x1a74 <scanID+0x24>
    1a66:	21 96       	adiw	r28, 0x01	; 1
    1a68:	80 e0       	ldi	r24, 0x00	; 0
    1a6a:	cf 3c       	cpi	r28, 0xCF	; 207
    1a6c:	d8 07       	cpc	r29, r24
    1a6e:	b1 f7       	brne	.-20     	; 0x1a5c <scanID+0xc>
    1a70:	81 e0       	ldi	r24, 0x01	; 1
    1a72:	01 c0       	rjmp	.+2      	; 0x1a76 <scanID+0x26>
    1a74:	80 e0       	ldi	r24, 0x00	; 0
    1a76:	df 91       	pop	r29
    1a78:	cf 91       	pop	r28
    1a7a:	1f 91       	pop	r17
    1a7c:	08 95       	ret

00001a7e <scanKBD>:
    1a7e:	20 b3       	in	r18, 0x10	; 16
    1a80:	83 b3       	in	r24, 0x13	; 19
    1a82:	28 73       	andi	r18, 0x38	; 56
    1a84:	26 95       	lsr	r18
    1a86:	80 7e       	andi	r24, 0xE0	; 224
    1a88:	28 2b       	or	r18, r24
    1a8a:	2c 3f       	cpi	r18, 0xFC	; 252
    1a8c:	19 f4       	brne	.+6      	; 0x1a94 <scanKBD+0x16>
    1a8e:	20 93 62 01 	sts	0x0162, r18	; 0x800162 <__data_end>
    1a92:	32 c0       	rjmp	.+100    	; 0x1af8 <scanKBD+0x7a>
    1a94:	80 91 62 01 	lds	r24, 0x0162	; 0x800162 <__data_end>
    1a98:	28 17       	cp	r18, r24
    1a9a:	71 f0       	breq	.+28     	; 0x1ab8 <scanKBD+0x3a>
    1a9c:	dc 9a       	sbi	0x1b, 4	; 27
    1a9e:	8a e0       	ldi	r24, 0x0A	; 10
    1aa0:	90 e0       	ldi	r25, 0x00	; 0
    1aa2:	ef e9       	ldi	r30, 0x9F	; 159
    1aa4:	ff e0       	ldi	r31, 0x0F	; 15
    1aa6:	31 97       	sbiw	r30, 0x01	; 1
    1aa8:	f1 f7       	brne	.-4      	; 0x1aa6 <scanKBD+0x28>
    1aaa:	00 c0       	rjmp	.+0      	; 0x1aac <scanKBD+0x2e>
    1aac:	00 00       	nop
    1aae:	01 97       	sbiw	r24, 0x01	; 1
    1ab0:	c1 f7       	brne	.-16     	; 0x1aa2 <scanKBD+0x24>
    1ab2:	dc 98       	cbi	0x1b, 4	; 27
    1ab4:	20 93 62 01 	sts	0x0162, r18	; 0x800162 <__data_end>
    1ab8:	80 e3       	ldi	r24, 0x30	; 48
    1aba:	95 e7       	ldi	r25, 0x75	; 117
    1abc:	90 93 7e 01 	sts	0x017E, r25	; 0x80017e <menuExit+0x1>
    1ac0:	80 93 7d 01 	sts	0x017D, r24	; 0x80017d <menuExit>
    1ac4:	82 e0       	ldi	r24, 0x02	; 2
    1ac6:	90 e0       	ldi	r25, 0x00	; 0
    1ac8:	61 e0       	ldi	r22, 0x01	; 1
    1aca:	70 e0       	ldi	r23, 0x00	; 0
    1acc:	30 e0       	ldi	r19, 0x00	; 0
    1ace:	ab 01       	movw	r20, r22
    1ad0:	08 2e       	mov	r0, r24
    1ad2:	02 c0       	rjmp	.+4      	; 0x1ad8 <scanKBD+0x5a>
    1ad4:	44 0f       	add	r20, r20
    1ad6:	55 1f       	adc	r21, r21
    1ad8:	0a 94       	dec	r0
    1ada:	e2 f7       	brpl	.-8      	; 0x1ad4 <scanKBD+0x56>
    1adc:	42 23       	and	r20, r18
    1ade:	53 23       	and	r21, r19
    1ae0:	08 2e       	mov	r0, r24
    1ae2:	02 c0       	rjmp	.+4      	; 0x1ae8 <scanKBD+0x6a>
    1ae4:	55 95       	asr	r21
    1ae6:	47 95       	ror	r20
    1ae8:	0a 94       	dec	r0
    1aea:	e2 f7       	brpl	.-8      	; 0x1ae4 <scanKBD+0x66>
    1aec:	45 2b       	or	r20, r21
    1aee:	29 f0       	breq	.+10     	; 0x1afa <scanKBD+0x7c>
    1af0:	01 96       	adiw	r24, 0x01	; 1
    1af2:	88 30       	cpi	r24, 0x08	; 8
    1af4:	91 05       	cpc	r25, r1
    1af6:	59 f7       	brne	.-42     	; 0x1ace <scanKBD+0x50>
    1af8:	8f ef       	ldi	r24, 0xFF	; 255
    1afa:	08 95       	ret

00001afc <whileKey>:
    1afc:	cf 93       	push	r28
    1afe:	0e 94 3f 0d 	call	0x1a7e	; 0x1a7e <scanKBD>
    1b02:	c8 2f       	mov	r28, r24
    1b04:	8f 3f       	cpi	r24, 0xFF	; 255
    1b06:	41 f4       	brne	.+16     	; 0x1b18 <whileKey+0x1c>
    1b08:	80 91 7d 01 	lds	r24, 0x017D	; 0x80017d <menuExit>
    1b0c:	90 91 7e 01 	lds	r25, 0x017E	; 0x80017e <menuExit+0x1>
    1b10:	89 2b       	or	r24, r25
    1b12:	a9 f7       	brne	.-22     	; 0x1afe <whileKey+0x2>
    1b14:	8f ef       	ldi	r24, 0xFF	; 255
    1b16:	05 c0       	rjmp	.+10     	; 0x1b22 <whileKey+0x26>
    1b18:	0e 94 3f 0d 	call	0x1a7e	; 0x1a7e <scanKBD>
    1b1c:	8f 3f       	cpi	r24, 0xFF	; 255
    1b1e:	e1 f7       	brne	.-8      	; 0x1b18 <whileKey+0x1c>
    1b20:	8c 2f       	mov	r24, r28
    1b22:	cf 91       	pop	r28
    1b24:	08 95       	ret

00001b26 <numm>:
    1b26:	cf 92       	push	r12
    1b28:	df 92       	push	r13
    1b2a:	ef 92       	push	r14
    1b2c:	ff 92       	push	r15
    1b2e:	1f 93       	push	r17
    1b30:	cf 93       	push	r28
    1b32:	df 93       	push	r29
    1b34:	00 d0       	rcall	.+0      	; 0x1b36 <numm+0x10>
    1b36:	cd b7       	in	r28, 0x3d	; 61
    1b38:	de b7       	in	r29, 0x3e	; 62
    1b3a:	83 e5       	ldi	r24, 0x53	; 83
    1b3c:	92 e0       	ldi	r25, 0x02	; 2
    1b3e:	0e 94 80 06 	call	0xd00	; 0xd00 <printMenuHeader>
    1b42:	10 e0       	ldi	r17, 0x00	; 0
    1b44:	87 e1       	ldi	r24, 0x17	; 23
    1b46:	e8 2e       	mov	r14, r24
    1b48:	81 e0       	ldi	r24, 0x01	; 1
    1b4a:	f8 2e       	mov	r15, r24
    1b4c:	ce 01       	movw	r24, r28
    1b4e:	01 96       	adiw	r24, 0x01	; 1
    1b50:	6c 01       	movw	r12, r24
    1b52:	62 e0       	ldi	r22, 0x02	; 2
    1b54:	80 e0       	ldi	r24, 0x00	; 0
    1b56:	0e 94 2f 04 	call	0x85e	; 0x85e <LCD_gotoXY>
    1b5a:	1f 92       	push	r1
    1b5c:	1f 93       	push	r17
    1b5e:	ff 92       	push	r15
    1b60:	ef 92       	push	r14
    1b62:	df 92       	push	r13
    1b64:	cf 92       	push	r12
    1b66:	0e 94 8c 1e 	call	0x3d18	; 0x3d18 <sprintf>
    1b6a:	64 e0       	ldi	r22, 0x04	; 4
    1b6c:	c6 01       	movw	r24, r12
    1b6e:	0e 94 d0 04 	call	0x9a0	; 0x9a0 <LCD_puts>
    1b72:	0e 94 7e 0d 	call	0x1afc	; 0x1afc <whileKey>
    1b76:	0f 90       	pop	r0
    1b78:	0f 90       	pop	r0
    1b7a:	0f 90       	pop	r0
    1b7c:	0f 90       	pop	r0
    1b7e:	0f 90       	pop	r0
    1b80:	0f 90       	pop	r0
    1b82:	85 30       	cpi	r24, 0x05	; 5
    1b84:	c9 f0       	breq	.+50     	; 0x1bb8 <numm+0x92>
    1b86:	68 f4       	brcc	.+26     	; 0x1ba2 <numm+0x7c>
    1b88:	82 30       	cpi	r24, 0x02	; 2
    1b8a:	19 f7       	brne	.-58     	; 0x1b52 <numm+0x2c>
    1b8c:	81 2f       	mov	r24, r17
    1b8e:	0f 90       	pop	r0
    1b90:	0f 90       	pop	r0
    1b92:	df 91       	pop	r29
    1b94:	cf 91       	pop	r28
    1b96:	1f 91       	pop	r17
    1b98:	ff 90       	pop	r15
    1b9a:	ef 90       	pop	r14
    1b9c:	df 90       	pop	r13
    1b9e:	cf 90       	pop	r12
    1ba0:	08 95       	ret
    1ba2:	86 30       	cpi	r24, 0x06	; 6
    1ba4:	29 f0       	breq	.+10     	; 0x1bb0 <numm+0x8a>
    1ba6:	8f 3f       	cpi	r24, 0xFF	; 255
    1ba8:	a1 f6       	brne	.-88     	; 0x1b52 <numm+0x2c>
    1baa:	0c 94 00 00 	jmp	0	; 0x0 <__vectors>
    1bae:	d1 cf       	rjmp	.-94     	; 0x1b52 <numm+0x2c>
    1bb0:	11 23       	and	r17, r17
    1bb2:	31 f0       	breq	.+12     	; 0x1bc0 <numm+0x9a>
    1bb4:	11 50       	subi	r17, 0x01	; 1
    1bb6:	cd cf       	rjmp	.-102    	; 0x1b52 <numm+0x2c>
    1bb8:	13 36       	cpi	r17, 0x63	; 99
    1bba:	21 f0       	breq	.+8      	; 0x1bc4 <numm+0x9e>
    1bbc:	1f 5f       	subi	r17, 0xFF	; 255
    1bbe:	c9 cf       	rjmp	.-110    	; 0x1b52 <numm+0x2c>
    1bc0:	13 e6       	ldi	r17, 0x63	; 99
    1bc2:	c7 cf       	rjmp	.-114    	; 0x1b52 <numm+0x2c>
    1bc4:	10 e0       	ldi	r17, 0x00	; 0
    1bc6:	c5 cf       	rjmp	.-118    	; 0x1b52 <numm+0x2c>

00001bc8 <change_param>:
    1bc8:	4f 92       	push	r4
    1bca:	5f 92       	push	r5
    1bcc:	6f 92       	push	r6
    1bce:	7f 92       	push	r7
    1bd0:	8f 92       	push	r8
    1bd2:	9f 92       	push	r9
    1bd4:	af 92       	push	r10
    1bd6:	bf 92       	push	r11
    1bd8:	cf 92       	push	r12
    1bda:	df 92       	push	r13
    1bdc:	ef 92       	push	r14
    1bde:	ff 92       	push	r15
    1be0:	0f 93       	push	r16
    1be2:	1f 93       	push	r17
    1be4:	cf 93       	push	r28
    1be6:	df 93       	push	r29
    1be8:	00 d0       	rcall	.+0      	; 0x1bea <change_param+0x22>
    1bea:	00 d0       	rcall	.+0      	; 0x1bec <change_param+0x24>
    1bec:	00 d0       	rcall	.+0      	; 0x1bee <change_param+0x26>
    1bee:	cd b7       	in	r28, 0x3d	; 61
    1bf0:	de b7       	in	r29, 0x3e	; 62
    1bf2:	48 2e       	mov	r4, r24
    1bf4:	0e 94 fa 0a 	call	0x15f4	; 0x15f4 <scansys>
    1bf8:	01 e0       	ldi	r16, 0x01	; 1
    1bfa:	10 e0       	ldi	r17, 0x00	; 0
    1bfc:	51 2c       	mov	r5, r1
    1bfe:	f1 2c       	mov	r15, r1
    1c00:	49 e0       	ldi	r20, 0x09	; 9
    1c02:	e4 2e       	mov	r14, r20
    1c04:	c8 01       	movw	r24, r16
    1c06:	87 5f       	subi	r24, 0xF7	; 247
    1c08:	9f 4f       	sbci	r25, 0xFF	; 255
    1c0a:	0e 94 4f 21 	call	0x429e	; 0x429e <eeprom_read_byte>
    1c0e:	80 13       	cpse	r24, r16
    1c10:	0f c0       	rjmp	.+30     	; 0x1c30 <change_param+0x68>
    1c12:	e0 9e       	mul	r14, r16
    1c14:	f0 01       	movw	r30, r0
    1c16:	e1 9e       	mul	r14, r17
    1c18:	f0 0d       	add	r31, r0
    1c1a:	11 24       	eor	r1, r1
    1c1c:	e1 58       	subi	r30, 0x81	; 129
    1c1e:	fe 4f       	sbci	r31, 0xFE	; 254
    1c20:	90 85       	ldd	r25, Z+8	; 0x08
    1c22:	92 ff       	sbrs	r25, 2
    1c24:	05 c0       	rjmp	.+10     	; 0x1c30 <change_param+0x68>
    1c26:	f3 94       	inc	r15
    1c28:	21 e0       	ldi	r18, 0x01	; 1
    1c2a:	f2 12       	cpse	r15, r18
    1c2c:	01 c0       	rjmp	.+2      	; 0x1c30 <change_param+0x68>
    1c2e:	58 2e       	mov	r5, r24
    1c30:	0f 5f       	subi	r16, 0xFF	; 255
    1c32:	1f 4f       	sbci	r17, 0xFF	; 255
    1c34:	03 36       	cpi	r16, 0x63	; 99
    1c36:	11 05       	cpc	r17, r1
    1c38:	29 f7       	brne	.-54     	; 0x1c04 <change_param+0x3c>
    1c3a:	ff 20       	and	r15, r15
    1c3c:	09 f4       	brne	.+2      	; 0x1c40 <change_param+0x78>
    1c3e:	49 c1       	rjmp	.+658    	; 0x1ed2 <change_param+0x30a>
    1c40:	31 e0       	ldi	r19, 0x01	; 1
    1c42:	3f 15       	cp	r19, r15
    1c44:	1c f4       	brge	.+6      	; 0x1c4c <change_param+0x84>
    1c46:	0e 94 93 0d 	call	0x1b26	; 0x1b26 <numm>
    1c4a:	58 2e       	mov	r5, r24
    1c4c:	41 10       	cpse	r4, r1
    1c4e:	13 c0       	rjmp	.+38     	; 0x1c76 <change_param+0xae>
    1c50:	51 10       	cpse	r5, r1
    1c52:	13 c0       	rjmp	.+38     	; 0x1c7a <change_param+0xb2>
    1c54:	62 e0       	ldi	r22, 0x02	; 2
    1c56:	80 e0       	ldi	r24, 0x00	; 0
    1c58:	0e 94 2f 04 	call	0x85e	; 0x85e <LCD_gotoXY>
    1c5c:	64 e1       	ldi	r22, 0x14	; 20
    1c5e:	84 e5       	ldi	r24, 0x54	; 84
    1c60:	90 e0       	ldi	r25, 0x00	; 0
    1c62:	0e 94 55 06 	call	0xcaa	; 0xcaa <LCD_puts_P>
    1c66:	8f ef       	ldi	r24, 0xFF	; 255
    1c68:	97 ea       	ldi	r25, 0xA7	; 167
    1c6a:	e1 e6       	ldi	r30, 0x61	; 97
    1c6c:	81 50       	subi	r24, 0x01	; 1
    1c6e:	90 40       	sbci	r25, 0x00	; 0
    1c70:	e0 40       	sbci	r30, 0x00	; 0
    1c72:	e1 f7       	brne	.-8      	; 0x1c6c <change_param+0xa4>
    1c74:	1b c0       	rjmp	.+54     	; 0x1cac <change_param+0xe4>
    1c76:	55 20       	and	r5, r5
    1c78:	e1 f0       	breq	.+56     	; 0x1cb2 <change_param+0xea>
    1c7a:	60 e0       	ldi	r22, 0x00	; 0
    1c7c:	70 e0       	ldi	r23, 0x00	; 0
    1c7e:	85 2d       	mov	r24, r5
    1c80:	0e 94 bd 0b 	call	0x177a	; 0x177a <send_prog>
    1c84:	87 fd       	sbrc	r24, 7
    1c86:	09 c0       	rjmp	.+18     	; 0x1c9a <change_param+0xd2>
    1c88:	29 e0       	ldi	r18, 0x09	; 9
    1c8a:	52 9e       	mul	r5, r18
    1c8c:	f0 01       	movw	r30, r0
    1c8e:	11 24       	eor	r1, r1
    1c90:	e1 58       	subi	r30, 0x81	; 129
    1c92:	fe 4f       	sbci	r31, 0xFE	; 254
    1c94:	80 81       	ld	r24, Z
    1c96:	86 30       	cpi	r24, 0x06	; 6
    1c98:	61 f0       	breq	.+24     	; 0x1cb2 <change_param+0xea>
    1c9a:	0e 94 77 06 	call	0xcee	; 0xcee <printTOUT>
    1c9e:	3f ef       	ldi	r19, 0xFF	; 255
    1ca0:	87 ea       	ldi	r24, 0xA7	; 167
    1ca2:	91 e6       	ldi	r25, 0x61	; 97
    1ca4:	31 50       	subi	r19, 0x01	; 1
    1ca6:	80 40       	sbci	r24, 0x00	; 0
    1ca8:	90 40       	sbci	r25, 0x00	; 0
    1caa:	e1 f7       	brne	.-8      	; 0x1ca4 <change_param+0xdc>
    1cac:	00 c0       	rjmp	.+0      	; 0x1cae <change_param+0xe6>
    1cae:	00 00       	nop
    1cb0:	10 c1       	rjmp	.+544    	; 0x1ed2 <change_param+0x30a>
    1cb2:	e1 e0       	ldi	r30, 0x01	; 1
    1cb4:	4e 16       	cp	r4, r30
    1cb6:	01 f1       	breq	.+64     	; 0x1cf8 <change_param+0x130>
    1cb8:	4e 16       	cp	r4, r30
    1cba:	88 f0       	brcs	.+34     	; 0x1cde <change_param+0x116>
    1cbc:	f2 e0       	ldi	r31, 0x02	; 2
    1cbe:	4f 12       	cpse	r4, r31
    1cc0:	08 c1       	rjmp	.+528    	; 0x1ed2 <change_param+0x30a>
    1cc2:	89 e0       	ldi	r24, 0x09	; 9
    1cc4:	58 9e       	mul	r5, r24
    1cc6:	f0 01       	movw	r30, r0
    1cc8:	11 24       	eor	r1, r1
    1cca:	e1 58       	subi	r30, 0x81	; 129
    1ccc:	fe 4f       	sbci	r31, 0xFE	; 254
    1cce:	84 81       	ldd	r24, Z+4	; 0x04
    1cd0:	e5 80       	ldd	r14, Z+5	; 0x05
    1cd2:	f1 2c       	mov	r15, r1
    1cd4:	f8 2a       	or	r15, r24
    1cd6:	8f ef       	ldi	r24, 0xFF	; 255
    1cd8:	83 83       	std	Z+3, r24	; 0x03
    1cda:	82 83       	std	Z+2, r24	; 0x02
    1cdc:	1a c0       	rjmp	.+52     	; 0x1d12 <change_param+0x14a>
    1cde:	29 e0       	ldi	r18, 0x09	; 9
    1ce0:	52 9e       	mul	r5, r18
    1ce2:	f0 01       	movw	r30, r0
    1ce4:	11 24       	eor	r1, r1
    1ce6:	e1 58       	subi	r30, 0x81	; 129
    1ce8:	fe 4f       	sbci	r31, 0xFE	; 254
    1cea:	e1 80       	ldd	r14, Z+1	; 0x01
    1cec:	f1 2c       	mov	r15, r1
    1cee:	33 e6       	ldi	r19, 0x63	; 99
    1cf0:	83 2e       	mov	r8, r19
    1cf2:	91 2c       	mov	r9, r1
    1cf4:	81 e0       	ldi	r24, 0x01	; 1
    1cf6:	12 c0       	rjmp	.+36     	; 0x1d1c <change_param+0x154>
    1cf8:	39 e0       	ldi	r19, 0x09	; 9
    1cfa:	53 9e       	mul	r5, r19
    1cfc:	f0 01       	movw	r30, r0
    1cfe:	11 24       	eor	r1, r1
    1d00:	e1 58       	subi	r30, 0x81	; 129
    1d02:	fe 4f       	sbci	r31, 0xFE	; 254
    1d04:	82 81       	ldd	r24, Z+2	; 0x02
    1d06:	e3 80       	ldd	r14, Z+3	; 0x03
    1d08:	f1 2c       	mov	r15, r1
    1d0a:	f8 2a       	or	r15, r24
    1d0c:	8f ef       	ldi	r24, 0xFF	; 255
    1d0e:	85 83       	std	Z+5, r24	; 0x05
    1d10:	84 83       	std	Z+4, r24	; 0x04
    1d12:	20 e3       	ldi	r18, 0x30	; 48
    1d14:	82 2e       	mov	r8, r18
    1d16:	25 e7       	ldi	r18, 0x75	; 117
    1d18:	92 2e       	mov	r9, r18
    1d1a:	8a e0       	ldi	r24, 0x0A	; 10
    1d1c:	00 e0       	ldi	r16, 0x00	; 0
    1d1e:	10 e0       	ldi	r17, 0x00	; 0
    1d20:	fe 01       	movw	r30, r28
    1d22:	31 96       	adiw	r30, 0x01	; 1
    1d24:	6f 01       	movw	r12, r30
    1d26:	9c e1       	ldi	r25, 0x1C	; 28
    1d28:	69 2e       	mov	r6, r25
    1d2a:	91 e0       	ldi	r25, 0x01	; 1
    1d2c:	79 2e       	mov	r7, r25
    1d2e:	a8 2e       	mov	r10, r24
    1d30:	b1 2c       	mov	r11, r1
    1d32:	0e 94 21 04 	call	0x842	; 0x842 <LCD_clr>
    1d36:	e1 14       	cp	r14, r1
    1d38:	f1 04       	cpc	r15, r1
    1d3a:	81 f1       	breq	.+96     	; 0x1d9c <change_param+0x1d4>
    1d3c:	60 e0       	ldi	r22, 0x00	; 0
    1d3e:	80 e0       	ldi	r24, 0x00	; 0
    1d40:	0e 94 2f 04 	call	0x85e	; 0x85e <LCD_gotoXY>
    1d44:	60 e1       	ldi	r22, 0x10	; 16
    1d46:	83 e4       	ldi	r24, 0x43	; 67
    1d48:	92 e0       	ldi	r25, 0x02	; 2
    1d4a:	0e 94 55 06 	call	0xcaa	; 0xcaa <LCD_puts_P>
    1d4e:	8a e3       	ldi	r24, 0x3A	; 58
    1d50:	0e 94 42 04 	call	0x884	; 0x884 <LCD_putchar>
    1d54:	ff 92       	push	r15
    1d56:	ef 92       	push	r14
    1d58:	7f 92       	push	r7
    1d5a:	6f 92       	push	r6
    1d5c:	df 92       	push	r13
    1d5e:	cf 92       	push	r12
    1d60:	0e 94 8c 1e 	call	0x3d18	; 0x3d18 <sprintf>
    1d64:	61 e0       	ldi	r22, 0x01	; 1
    1d66:	80 e0       	ldi	r24, 0x00	; 0
    1d68:	0e 94 2f 04 	call	0x85e	; 0x85e <LCD_gotoXY>
    1d6c:	f6 01       	movw	r30, r12
    1d6e:	01 90       	ld	r0, Z+
    1d70:	00 20       	and	r0, r0
    1d72:	e9 f7       	brne	.-6      	; 0x1d6e <change_param+0x1a6>
    1d74:	31 97       	sbiw	r30, 0x01	; 1
    1d76:	bf 01       	movw	r22, r30
    1d78:	6c 19       	sub	r22, r12
    1d7a:	7d 09       	sbc	r23, r13
    1d7c:	c6 01       	movw	r24, r12
    1d7e:	0e 94 d0 04 	call	0x9a0	; 0x9a0 <LCD_puts>
    1d82:	0f 90       	pop	r0
    1d84:	0f 90       	pop	r0
    1d86:	0f 90       	pop	r0
    1d88:	0f 90       	pop	r0
    1d8a:	0f 90       	pop	r0
    1d8c:	0f 90       	pop	r0
    1d8e:	44 20       	and	r4, r4
    1d90:	29 f0       	breq	.+10     	; 0x1d9c <change_param+0x1d4>
    1d92:	62 e0       	ldi	r22, 0x02	; 2
    1d94:	85 e7       	ldi	r24, 0x75	; 117
    1d96:	90 e0       	ldi	r25, 0x00	; 0
    1d98:	0e 94 55 06 	call	0xcaa	; 0xcaa <LCD_puts_P>
    1d9c:	62 e0       	ldi	r22, 0x02	; 2
    1d9e:	80 e0       	ldi	r24, 0x00	; 0
    1da0:	0e 94 2f 04 	call	0x85e	; 0x85e <LCD_gotoXY>
    1da4:	6e e0       	ldi	r22, 0x0E	; 14
    1da6:	8f e5       	ldi	r24, 0x5F	; 95
    1da8:	90 e0       	ldi	r25, 0x00	; 0
    1daa:	0e 94 55 06 	call	0xcaa	; 0xcaa <LCD_puts_P>
    1dae:	8a e3       	ldi	r24, 0x3A	; 58
    1db0:	0e 94 42 04 	call	0x884	; 0x884 <LCD_putchar>
    1db4:	1f 93       	push	r17
    1db6:	0f 93       	push	r16
    1db8:	7f 92       	push	r7
    1dba:	6f 92       	push	r6
    1dbc:	df 92       	push	r13
    1dbe:	cf 92       	push	r12
    1dc0:	0e 94 8c 1e 	call	0x3d18	; 0x3d18 <sprintf>
    1dc4:	63 e0       	ldi	r22, 0x03	; 3
    1dc6:	80 e0       	ldi	r24, 0x00	; 0
    1dc8:	0e 94 2f 04 	call	0x85e	; 0x85e <LCD_gotoXY>
    1dcc:	f6 01       	movw	r30, r12
    1dce:	01 90       	ld	r0, Z+
    1dd0:	00 20       	and	r0, r0
    1dd2:	e9 f7       	brne	.-6      	; 0x1dce <change_param+0x206>
    1dd4:	31 97       	sbiw	r30, 0x01	; 1
    1dd6:	bf 01       	movw	r22, r30
    1dd8:	6c 19       	sub	r22, r12
    1dda:	7d 09       	sbc	r23, r13
    1ddc:	c6 01       	movw	r24, r12
    1dde:	0e 94 d0 04 	call	0x9a0	; 0x9a0 <LCD_puts>
    1de2:	0f 90       	pop	r0
    1de4:	0f 90       	pop	r0
    1de6:	0f 90       	pop	r0
    1de8:	0f 90       	pop	r0
    1dea:	0f 90       	pop	r0
    1dec:	0f 90       	pop	r0
    1dee:	44 20       	and	r4, r4
    1df0:	29 f0       	breq	.+10     	; 0x1dfc <change_param+0x234>
    1df2:	62 e0       	ldi	r22, 0x02	; 2
    1df4:	85 e7       	ldi	r24, 0x75	; 117
    1df6:	90 e0       	ldi	r25, 0x00	; 0
    1df8:	0e 94 55 06 	call	0xcaa	; 0xcaa <LCD_puts_P>
    1dfc:	0e 94 7e 0d 	call	0x1afc	; 0x1afc <whileKey>
    1e00:	85 30       	cpi	r24, 0x05	; 5
    1e02:	e1 f0       	breq	.+56     	; 0x1e3c <change_param+0x274>
    1e04:	30 f4       	brcc	.+12     	; 0x1e12 <change_param+0x24a>
    1e06:	82 30       	cpi	r24, 0x02	; 2
    1e08:	01 f1       	breq	.+64     	; 0x1e4a <change_param+0x282>
    1e0a:	83 30       	cpi	r24, 0x03	; 3
    1e0c:	09 f4       	brne	.+2      	; 0x1e10 <change_param+0x248>
    1e0e:	61 c0       	rjmp	.+194    	; 0x1ed2 <change_param+0x30a>
    1e10:	90 cf       	rjmp	.-224    	; 0x1d32 <change_param+0x16a>
    1e12:	86 30       	cpi	r24, 0x06	; 6
    1e14:	31 f0       	breq	.+12     	; 0x1e22 <change_param+0x25a>
    1e16:	8f 3f       	cpi	r24, 0xFF	; 255
    1e18:	09 f0       	breq	.+2      	; 0x1e1c <change_param+0x254>
    1e1a:	8b cf       	rjmp	.-234    	; 0x1d32 <change_param+0x16a>
    1e1c:	0c 94 00 00 	jmp	0	; 0x0 <__vectors>
    1e20:	88 cf       	rjmp	.-240    	; 0x1d32 <change_param+0x16a>
    1e22:	81 e0       	ldi	r24, 0x01	; 1
    1e24:	90 e0       	ldi	r25, 0x00	; 0
    1e26:	44 20       	and	r4, r4
    1e28:	11 f0       	breq	.+4      	; 0x1e2e <change_param+0x266>
    1e2a:	80 e0       	ldi	r24, 0x00	; 0
    1e2c:	90 e0       	ldi	r25, 0x00	; 0
    1e2e:	80 17       	cp	r24, r16
    1e30:	91 07       	cpc	r25, r17
    1e32:	0c f0       	brlt	.+2      	; 0x1e36 <change_param+0x26e>
    1e34:	7e cf       	rjmp	.-260    	; 0x1d32 <change_param+0x16a>
    1e36:	0a 19       	sub	r16, r10
    1e38:	1b 09       	sbc	r17, r11
    1e3a:	7b cf       	rjmp	.-266    	; 0x1d32 <change_param+0x16a>
    1e3c:	08 15       	cp	r16, r8
    1e3e:	19 05       	cpc	r17, r9
    1e40:	0c f0       	brlt	.+2      	; 0x1e44 <change_param+0x27c>
    1e42:	77 cf       	rjmp	.-274    	; 0x1d32 <change_param+0x16a>
    1e44:	0a 0d       	add	r16, r10
    1e46:	1b 1d       	adc	r17, r11
    1e48:	74 cf       	rjmp	.-280    	; 0x1d32 <change_param+0x16a>
    1e4a:	c5 2c       	mov	r12, r5
    1e4c:	d1 2c       	mov	r13, r1
    1e4e:	f9 e0       	ldi	r31, 0x09	; 9
    1e50:	5f 9e       	mul	r5, r31
    1e52:	c0 01       	movw	r24, r0
    1e54:	11 24       	eor	r1, r1
    1e56:	9c 01       	movw	r18, r24
    1e58:	21 58       	subi	r18, 0x81	; 129
    1e5a:	3e 4f       	sbci	r19, 0xFE	; 254
    1e5c:	79 01       	movw	r14, r18
    1e5e:	86 e0       	ldi	r24, 0x06	; 6
    1e60:	f9 01       	movw	r30, r18
    1e62:	80 83       	st	Z, r24
    1e64:	f1 e0       	ldi	r31, 0x01	; 1
    1e66:	4f 16       	cp	r4, r31
    1e68:	f9 f0       	breq	.+62     	; 0x1ea8 <change_param+0x2e0>
    1e6a:	4f 16       	cp	r4, r31
    1e6c:	38 f0       	brcs	.+14     	; 0x1e7c <change_param+0x2b4>
    1e6e:	22 e0       	ldi	r18, 0x02	; 2
    1e70:	42 12       	cpse	r4, r18
    1e72:	2f c0       	rjmp	.+94     	; 0x1ed2 <change_param+0x30a>
    1e74:	f7 01       	movw	r30, r14
    1e76:	14 83       	std	Z+4, r17	; 0x04
    1e78:	05 83       	std	Z+5, r16	; 0x05
    1e7a:	19 c0       	rjmp	.+50     	; 0x1eae <change_param+0x2e6>
    1e7c:	c8 01       	movw	r24, r16
    1e7e:	87 5f       	subi	r24, 0xF7	; 247
    1e80:	9f 4f       	sbci	r25, 0xFF	; 255
    1e82:	0e 94 4f 21 	call	0x429e	; 0x429e <eeprom_read_byte>
    1e86:	88 23       	and	r24, r24
    1e88:	61 f0       	breq	.+24     	; 0x1ea2 <change_param+0x2da>
    1e8a:	0e 94 21 04 	call	0x842	; 0x842 <LCD_clr>
    1e8e:	60 e0       	ldi	r22, 0x00	; 0
    1e90:	80 e0       	ldi	r24, 0x00	; 0
    1e92:	0e 94 2f 04 	call	0x85e	; 0x85e <LCD_gotoXY>
    1e96:	64 e1       	ldi	r22, 0x14	; 20
    1e98:	80 e3       	ldi	r24, 0x30	; 48
    1e9a:	92 e0       	ldi	r25, 0x02	; 2
    1e9c:	0e 94 55 06 	call	0xcaa	; 0xcaa <LCD_puts_P>
    1ea0:	fe ce       	rjmp	.-516    	; 0x1c9e <change_param+0xd6>
    1ea2:	f7 01       	movw	r30, r14
    1ea4:	01 83       	std	Z+1, r16	; 0x01
    1ea6:	03 c0       	rjmp	.+6      	; 0x1eae <change_param+0x2e6>
    1ea8:	f9 01       	movw	r30, r18
    1eaa:	12 83       	std	Z+2, r17	; 0x02
    1eac:	03 83       	std	Z+3, r16	; 0x03
    1eae:	89 e0       	ldi	r24, 0x09	; 9
    1eb0:	8c 9d       	mul	r24, r12
    1eb2:	b0 01       	movw	r22, r0
    1eb4:	8d 9d       	mul	r24, r13
    1eb6:	70 0d       	add	r23, r0
    1eb8:	11 24       	eor	r1, r1
    1eba:	61 58       	subi	r22, 0x81	; 129
    1ebc:	7e 4f       	sbci	r23, 0xFE	; 254
    1ebe:	85 2d       	mov	r24, r5
    1ec0:	0e 94 bd 0b 	call	0x177a	; 0x177a <send_prog>
    1ec4:	87 ff       	sbrs	r24, 7
    1ec6:	03 c0       	rjmp	.+6      	; 0x1ece <change_param+0x306>
    1ec8:	01 2b       	or	r16, r17
    1eca:	09 f0       	breq	.+2      	; 0x1ece <change_param+0x306>
    1ecc:	e6 ce       	rjmp	.-564    	; 0x1c9a <change_param+0xd2>
    1ece:	0e 94 fa 0a 	call	0x15f4	; 0x15f4 <scansys>
    1ed2:	26 96       	adiw	r28, 0x06	; 6
    1ed4:	0f b6       	in	r0, 0x3f	; 63
    1ed6:	f8 94       	cli
    1ed8:	de bf       	out	0x3e, r29	; 62
    1eda:	0f be       	out	0x3f, r0	; 63
    1edc:	cd bf       	out	0x3d, r28	; 61
    1ede:	df 91       	pop	r29
    1ee0:	cf 91       	pop	r28
    1ee2:	1f 91       	pop	r17
    1ee4:	0f 91       	pop	r16
    1ee6:	ff 90       	pop	r15
    1ee8:	ef 90       	pop	r14
    1eea:	df 90       	pop	r13
    1eec:	cf 90       	pop	r12
    1eee:	bf 90       	pop	r11
    1ef0:	af 90       	pop	r10
    1ef2:	9f 90       	pop	r9
    1ef4:	8f 90       	pop	r8
    1ef6:	7f 90       	pop	r7
    1ef8:	6f 90       	pop	r6
    1efa:	5f 90       	pop	r5
    1efc:	4f 90       	pop	r4
    1efe:	08 95       	ret

00001f00 <vremya_urov>:
    1f00:	82 e0       	ldi	r24, 0x02	; 2
    1f02:	0c 94 e4 0d 	jmp	0x1bc8	; 0x1bc8 <change_param>

00001f06 <vremya_mtz>:
    1f06:	81 e0       	ldi	r24, 0x01	; 1
    1f08:	0c 94 e4 0d 	jmp	0x1bc8	; 0x1bc8 <change_param>

00001f0c <adres>:
    1f0c:	80 e0       	ldi	r24, 0x00	; 0
    1f0e:	0c 94 e4 0d 	jmp	0x1bc8	; 0x1bc8 <change_param>

00001f12 <datavremya>:
    1f12:	cf 92       	push	r12
    1f14:	df 92       	push	r13
    1f16:	ef 92       	push	r14
    1f18:	ff 92       	push	r15
    1f1a:	0f 93       	push	r16
    1f1c:	1f 93       	push	r17
    1f1e:	cf 93       	push	r28
    1f20:	df 93       	push	r29
    1f22:	cd b7       	in	r28, 0x3d	; 61
    1f24:	de b7       	in	r29, 0x3e	; 62
    1f26:	a6 97       	sbiw	r28, 0x26	; 38
    1f28:	0f b6       	in	r0, 0x3f	; 63
    1f2a:	f8 94       	cli
    1f2c:	de bf       	out	0x3e, r29	; 62
    1f2e:	0f be       	out	0x3f, r0	; 63
    1f30:	cd bf       	out	0x3d, r28	; 61
    1f32:	86 e0       	ldi	r24, 0x06	; 6
    1f34:	e4 ee       	ldi	r30, 0xE4	; 228
    1f36:	f0 e0       	ldi	r31, 0x00	; 0
    1f38:	de 01       	movw	r26, r28
    1f3a:	91 96       	adiw	r26, 0x21	; 33
    1f3c:	01 90       	ld	r0, Z+
    1f3e:	0d 92       	st	X+, r0
    1f40:	8a 95       	dec	r24
    1f42:	e1 f7       	brne	.-8      	; 0x1f3c <datavremya+0x2a>
    1f44:	8c e0       	ldi	r24, 0x0C	; 12
    1f46:	ea ee       	ldi	r30, 0xEA	; 234
    1f48:	f0 e0       	ldi	r31, 0x00	; 0
    1f4a:	de 01       	movw	r26, r28
    1f4c:	55 96       	adiw	r26, 0x15	; 21
    1f4e:	01 90       	ld	r0, Z+
    1f50:	0d 92       	st	X+, r0
    1f52:	8a 95       	dec	r24
    1f54:	e1 f7       	brne	.-8      	; 0x1f4e <datavremya+0x3c>
    1f56:	80 e5       	ldi	r24, 0x50	; 80
    1f58:	91 e0       	ldi	r25, 0x01	; 1
    1f5a:	0e 94 80 06 	call	0xd00	; 0xd00 <printMenuHeader>
    1f5e:	8e e0       	ldi	r24, 0x0E	; 14
    1f60:	95 e0       	ldi	r25, 0x05	; 5
    1f62:	0e 94 d7 02 	call	0x5ae	; 0x5ae <rtc_get>
    1f66:	87 ff       	sbrs	r24, 7
    1f68:	03 c0       	rjmp	.+6      	; 0x1f70 <datavremya+0x5e>
    1f6a:	82 e0       	ldi	r24, 0x02	; 2
    1f6c:	80 93 67 01 	sts	0x0167, r24	; 0x800167 <ERROR>
    1f70:	10 e0       	ldi	r17, 0x00	; 0
    1f72:	5f e1       	ldi	r21, 0x1F	; 31
    1f74:	c5 2e       	mov	r12, r21
    1f76:	51 e0       	ldi	r21, 0x01	; 1
    1f78:	d5 2e       	mov	r13, r21
    1f7a:	ce 01       	movw	r24, r28
    1f7c:	01 96       	adiw	r24, 0x01	; 1
    1f7e:	7c 01       	movw	r14, r24
    1f80:	80 91 13 05 	lds	r24, 0x0513	; 0x800513 <rtc+0x5>
    1f84:	1f 92       	push	r1
    1f86:	8f 93       	push	r24
    1f88:	80 91 12 05 	lds	r24, 0x0512	; 0x800512 <rtc+0x4>
    1f8c:	1f 92       	push	r1
    1f8e:	8f 93       	push	r24
    1f90:	80 91 11 05 	lds	r24, 0x0511	; 0x800511 <rtc+0x3>
    1f94:	1f 92       	push	r1
    1f96:	8f 93       	push	r24
    1f98:	80 91 0e 05 	lds	r24, 0x050E	; 0x80050e <rtc>
    1f9c:	1f 92       	push	r1
    1f9e:	8f 93       	push	r24
    1fa0:	80 91 0f 05 	lds	r24, 0x050F	; 0x80050f <rtc+0x1>
    1fa4:	1f 92       	push	r1
    1fa6:	8f 93       	push	r24
    1fa8:	80 91 10 05 	lds	r24, 0x0510	; 0x800510 <rtc+0x2>
    1fac:	1f 92       	push	r1
    1fae:	8f 93       	push	r24
    1fb0:	df 92       	push	r13
    1fb2:	cf 92       	push	r12
    1fb4:	ff 92       	push	r15
    1fb6:	ef 92       	push	r14
    1fb8:	0e 94 8c 1e 	call	0x3d18	; 0x3d18 <sprintf>
    1fbc:	63 e0       	ldi	r22, 0x03	; 3
    1fbe:	80 e0       	ldi	r24, 0x00	; 0
    1fc0:	0e 94 2f 04 	call	0x85e	; 0x85e <LCD_gotoXY>
    1fc4:	62 e1       	ldi	r22, 0x12	; 18
    1fc6:	c7 01       	movw	r24, r14
    1fc8:	0e 94 d0 04 	call	0x9a0	; 0x9a0 <LCD_puts>
    1fcc:	63 e0       	ldi	r22, 0x03	; 3
    1fce:	81 2f       	mov	r24, r17
    1fd0:	88 0f       	add	r24, r24
    1fd2:	81 0f       	add	r24, r17
    1fd4:	0e 94 2f 04 	call	0x85e	; 0x85e <LCD_gotoXY>
    1fd8:	84 e8       	ldi	r24, 0x84	; 132
    1fda:	0e 94 42 04 	call	0x884	; 0x884 <LCD_putchar>
    1fde:	01 e0       	ldi	r16, 0x01	; 1
    1fe0:	0f b6       	in	r0, 0x3f	; 63
    1fe2:	f8 94       	cli
    1fe4:	de bf       	out	0x3e, r29	; 62
    1fe6:	0f be       	out	0x3f, r0	; 63
    1fe8:	cd bf       	out	0x3d, r28	; 61
    1fea:	12 30       	cpi	r17, 0x02	; 2
    1fec:	08 f0       	brcs	.+2      	; 0x1ff0 <datavremya+0xde>
    1fee:	00 e0       	ldi	r16, 0x00	; 0
    1ff0:	0e 94 7e 0d 	call	0x1afc	; 0x1afc <whileKey>
    1ff4:	85 30       	cpi	r24, 0x05	; 5
    1ff6:	b1 f0       	breq	.+44     	; 0x2024 <datavremya+0x112>
    1ff8:	30 f4       	brcc	.+12     	; 0x2006 <datavremya+0xf4>
    1ffa:	82 30       	cpi	r24, 0x02	; 2
    1ffc:	09 f4       	brne	.+2      	; 0x2000 <datavremya+0xee>
    1ffe:	43 c0       	rjmp	.+134    	; 0x2086 <datavremya+0x174>
    2000:	84 30       	cpi	r24, 0x04	; 4
    2002:	59 f0       	breq	.+22     	; 0x201a <datavremya+0x108>
    2004:	44 c0       	rjmp	.+136    	; 0x208e <datavremya+0x17c>
    2006:	86 30       	cpi	r24, 0x06	; 6
    2008:	29 f1       	breq	.+74     	; 0x2054 <datavremya+0x142>
    200a:	87 30       	cpi	r24, 0x07	; 7
    200c:	09 f0       	breq	.+2      	; 0x2010 <datavremya+0xfe>
    200e:	3f c0       	rjmp	.+126    	; 0x208e <datavremya+0x17c>
    2010:	15 30       	cpi	r17, 0x05	; 5
    2012:	08 f0       	brcs	.+2      	; 0x2016 <datavremya+0x104>
    2014:	b5 cf       	rjmp	.-150    	; 0x1f80 <datavremya+0x6e>
    2016:	1f 5f       	subi	r17, 0xFF	; 255
    2018:	b3 cf       	rjmp	.-154    	; 0x1f80 <datavremya+0x6e>
    201a:	11 23       	and	r17, r17
    201c:	09 f4       	brne	.+2      	; 0x2020 <datavremya+0x10e>
    201e:	b0 cf       	rjmp	.-160    	; 0x1f80 <datavremya+0x6e>
    2020:	11 50       	subi	r17, 0x01	; 1
    2022:	ae cf       	rjmp	.-164    	; 0x1f80 <datavremya+0x6e>
    2024:	21 2f       	mov	r18, r17
    2026:	30 e0       	ldi	r19, 0x00	; 0
    2028:	f9 01       	movw	r30, r18
    202a:	ee 0f       	add	r30, r30
    202c:	ff 1f       	adc	r31, r31
    202e:	ee 0d       	add	r30, r14
    2030:	ff 1d       	adc	r31, r15
    2032:	04 88       	ldd	r0, Z+20	; 0x14
    2034:	f5 89       	ldd	r31, Z+21	; 0x15
    2036:	e0 2d       	mov	r30, r0
    2038:	80 81       	ld	r24, Z
    203a:	a1 e2       	ldi	r26, 0x21	; 33
    203c:	b0 e0       	ldi	r27, 0x00	; 0
    203e:	ac 0f       	add	r26, r28
    2040:	bd 1f       	adc	r27, r29
    2042:	a2 0f       	add	r26, r18
    2044:	b3 1f       	adc	r27, r19
    2046:	9c 91       	ld	r25, X
    2048:	89 17       	cp	r24, r25
    204a:	10 f4       	brcc	.+4      	; 0x2050 <datavremya+0x13e>
    204c:	8f 5f       	subi	r24, 0xFF	; 255
    204e:	19 c0       	rjmp	.+50     	; 0x2082 <datavremya+0x170>
    2050:	00 83       	st	Z, r16
    2052:	96 cf       	rjmp	.-212    	; 0x1f80 <datavremya+0x6e>
    2054:	81 2f       	mov	r24, r17
    2056:	90 e0       	ldi	r25, 0x00	; 0
    2058:	fc 01       	movw	r30, r24
    205a:	ee 0f       	add	r30, r30
    205c:	ff 1f       	adc	r31, r31
    205e:	ee 0d       	add	r30, r14
    2060:	ff 1d       	adc	r31, r15
    2062:	04 88       	ldd	r0, Z+20	; 0x14
    2064:	f5 89       	ldd	r31, Z+21	; 0x15
    2066:	e0 2d       	mov	r30, r0
    2068:	20 81       	ld	r18, Z
    206a:	02 17       	cp	r16, r18
    206c:	18 f4       	brcc	.+6      	; 0x2074 <datavremya+0x162>
    206e:	21 50       	subi	r18, 0x01	; 1
    2070:	20 83       	st	Z, r18
    2072:	86 cf       	rjmp	.-244    	; 0x1f80 <datavremya+0x6e>
    2074:	a1 e2       	ldi	r26, 0x21	; 33
    2076:	b0 e0       	ldi	r27, 0x00	; 0
    2078:	ac 0f       	add	r26, r28
    207a:	bd 1f       	adc	r27, r29
    207c:	a8 0f       	add	r26, r24
    207e:	b9 1f       	adc	r27, r25
    2080:	8c 91       	ld	r24, X
    2082:	80 83       	st	Z, r24
    2084:	7d cf       	rjmp	.-262    	; 0x1f80 <datavremya+0x6e>
    2086:	8e e0       	ldi	r24, 0x0E	; 14
    2088:	95 e0       	ldi	r25, 0x05	; 5
    208a:	0e 94 72 02 	call	0x4e4	; 0x4e4 <rtc_set>
    208e:	a6 96       	adiw	r28, 0x26	; 38
    2090:	0f b6       	in	r0, 0x3f	; 63
    2092:	f8 94       	cli
    2094:	de bf       	out	0x3e, r29	; 62
    2096:	0f be       	out	0x3f, r0	; 63
    2098:	cd bf       	out	0x3d, r28	; 61
    209a:	df 91       	pop	r29
    209c:	cf 91       	pop	r28
    209e:	1f 91       	pop	r17
    20a0:	0f 91       	pop	r16
    20a2:	ff 90       	pop	r15
    20a4:	ef 90       	pop	r14
    20a6:	df 90       	pop	r13
    20a8:	cf 90       	pop	r12
    20aa:	08 95       	ret

000020ac <chetnost>:
    20ac:	0f 93       	push	r16
    20ae:	1f 93       	push	r17
    20b0:	cf 93       	push	r28
    20b2:	84 e0       	ldi	r24, 0x04	; 4
    20b4:	91 e0       	ldi	r25, 0x01	; 1
    20b6:	0e 94 80 06 	call	0xd00	; 0xd00 <printMenuHeader>
    20ba:	81 e0       	ldi	r24, 0x01	; 1
    20bc:	90 e0       	ldi	r25, 0x00	; 0
    20be:	0e 94 4f 21 	call	0x429e	; 0x429e <eeprom_read_byte>
    20c2:	c8 2f       	mov	r28, r24
    20c4:	00 e0       	ldi	r16, 0x00	; 0
    20c6:	10 e0       	ldi	r17, 0x00	; 0
    20c8:	60 e0       	ldi	r22, 0x00	; 0
    20ca:	8a e0       	ldi	r24, 0x0A	; 10
    20cc:	0e 94 2f 04 	call	0x85e	; 0x85e <LCD_gotoXY>
    20d0:	c0 32       	cpi	r28, 0x20	; 32
    20d2:	19 f1       	breq	.+70     	; 0x211a <chetnost+0x6e>
    20d4:	c0 33       	cpi	r28, 0x30	; 48
    20d6:	61 f0       	breq	.+24     	; 0x20f0 <chetnost+0x44>
    20d8:	c1 11       	cpse	r28, r1
    20da:	0d c0       	rjmp	.+26     	; 0x20f6 <chetnost+0x4a>
    20dc:	06 ef       	ldi	r16, 0xF6	; 246
    20de:	10 e0       	ldi	r17, 0x00	; 0
    20e0:	c0 e0       	ldi	r28, 0x00	; 0
    20e2:	09 c0       	rjmp	.+18     	; 0x20f6 <chetnost+0x4a>
    20e4:	c0 32       	cpi	r28, 0x20	; 32
    20e6:	39 f5       	brne	.+78     	; 0x2136 <chetnost+0x8a>
    20e8:	60 e0       	ldi	r22, 0x00	; 0
    20ea:	8a e0       	ldi	r24, 0x0A	; 10
    20ec:	0e 94 2f 04 	call	0x85e	; 0x85e <LCD_gotoXY>
    20f0:	00 e0       	ldi	r16, 0x00	; 0
    20f2:	11 e0       	ldi	r17, 0x01	; 1
    20f4:	c0 e3       	ldi	r28, 0x30	; 48
    20f6:	65 e0       	ldi	r22, 0x05	; 5
    20f8:	c8 01       	movw	r24, r16
    20fa:	0e 94 55 06 	call	0xcaa	; 0xcaa <LCD_puts_P>
    20fe:	0e 94 7e 0d 	call	0x1afc	; 0x1afc <whileKey>
    2102:	85 30       	cpi	r24, 0x05	; 5
    2104:	79 f3       	breq	.-34     	; 0x20e4 <chetnost+0x38>
    2106:	86 30       	cpi	r24, 0x06	; 6
    2108:	61 f4       	brne	.+24     	; 0x2122 <chetnost+0x76>
    210a:	cc 23       	and	r28, r28
    210c:	69 f3       	breq	.-38     	; 0x20e8 <chetnost+0x3c>
    210e:	c0 33       	cpi	r28, 0x30	; 48
    2110:	d9 f6       	brne	.-74     	; 0x20c8 <chetnost+0x1c>
    2112:	60 e0       	ldi	r22, 0x00	; 0
    2114:	8a e0       	ldi	r24, 0x0A	; 10
    2116:	0e 94 2f 04 	call	0x85e	; 0x85e <LCD_gotoXY>
    211a:	0b ef       	ldi	r16, 0xFB	; 251
    211c:	10 e0       	ldi	r17, 0x00	; 0
    211e:	c0 e2       	ldi	r28, 0x20	; 32
    2120:	ea cf       	rjmp	.-44     	; 0x20f6 <chetnost+0x4a>
    2122:	82 30       	cpi	r24, 0x02	; 2
    2124:	79 f4       	brne	.+30     	; 0x2144 <chetnost+0x98>
    2126:	6c 2f       	mov	r22, r28
    2128:	81 e0       	ldi	r24, 0x01	; 1
    212a:	90 e0       	ldi	r25, 0x00	; 0
    212c:	cf 91       	pop	r28
    212e:	1f 91       	pop	r17
    2130:	0f 91       	pop	r16
    2132:	0c 94 63 21 	jmp	0x42c6	; 0x42c6 <eeprom_write_byte>
    2136:	c0 33       	cpi	r28, 0x30	; 48
    2138:	39 f6       	brne	.-114    	; 0x20c8 <chetnost+0x1c>
    213a:	60 e0       	ldi	r22, 0x00	; 0
    213c:	8a e0       	ldi	r24, 0x0A	; 10
    213e:	0e 94 2f 04 	call	0x85e	; 0x85e <LCD_gotoXY>
    2142:	cc cf       	rjmp	.-104    	; 0x20dc <chetnost+0x30>
    2144:	cf 91       	pop	r28
    2146:	1f 91       	pop	r17
    2148:	0f 91       	pop	r16
    214a:	08 95       	ret

0000214c <skorost>:
    214c:	cf 92       	push	r12
    214e:	df 92       	push	r13
    2150:	ef 92       	push	r14
    2152:	ff 92       	push	r15
    2154:	cf 93       	push	r28
    2156:	df 93       	push	r29
    2158:	cd b7       	in	r28, 0x3d	; 61
    215a:	de b7       	in	r29, 0x3e	; 62
    215c:	27 97       	sbiw	r28, 0x07	; 7
    215e:	0f b6       	in	r0, 0x3f	; 63
    2160:	f8 94       	cli
    2162:	de bf       	out	0x3e, r29	; 62
    2164:	0f be       	out	0x3f, r0	; 63
    2166:	cd bf       	out	0x3d, r28	; 61
    2168:	82 e0       	ldi	r24, 0x02	; 2
    216a:	90 e0       	ldi	r25, 0x00	; 0
    216c:	0e 94 57 21 	call	0x42ae	; 0x42ae <eeprom_read_dword>
    2170:	6b 01       	movw	r12, r22
    2172:	7c 01       	movw	r14, r24
    2174:	8d e0       	ldi	r24, 0x0D	; 13
    2176:	91 e0       	ldi	r25, 0x01	; 1
    2178:	0e 94 80 06 	call	0xd00	; 0xd00 <printMenuHeader>
    217c:	60 e0       	ldi	r22, 0x00	; 0
    217e:	8a e0       	ldi	r24, 0x0A	; 10
    2180:	0e 94 2f 04 	call	0x85e	; 0x85e <LCD_gotoXY>
    2184:	2a e0       	ldi	r18, 0x0A	; 10
    2186:	ae 01       	movw	r20, r28
    2188:	4f 5f       	subi	r20, 0xFF	; 255
    218a:	5f 4f       	sbci	r21, 0xFF	; 255
    218c:	c7 01       	movw	r24, r14
    218e:	b6 01       	movw	r22, r12
    2190:	0e 94 41 1e 	call	0x3c82	; 0x3c82 <__ltoa_ncheck>
    2194:	65 e0       	ldi	r22, 0x05	; 5
    2196:	0e 94 d0 04 	call	0x9a0	; 0x9a0 <LCD_puts>
    219a:	0e 94 7e 0d 	call	0x1afc	; 0x1afc <whileKey>
    219e:	85 30       	cpi	r24, 0x05	; 5
    21a0:	59 f0       	breq	.+22     	; 0x21b8 <skorost+0x6c>
    21a2:	86 30       	cpi	r24, 0x06	; 6
    21a4:	a9 f0       	breq	.+42     	; 0x21d0 <skorost+0x84>
    21a6:	82 30       	cpi	r24, 0x02	; 2
    21a8:	f9 f4       	brne	.+62     	; 0x21e8 <skorost+0x9c>
    21aa:	b7 01       	movw	r22, r14
    21ac:	a6 01       	movw	r20, r12
    21ae:	82 e0       	ldi	r24, 0x02	; 2
    21b0:	90 e0       	ldi	r25, 0x00	; 0
    21b2:	0e 94 70 21 	call	0x42e0	; 0x42e0 <eeprom_write_dword>
    21b6:	18 c0       	rjmp	.+48     	; 0x21e8 <skorost+0x9c>
    21b8:	c1 14       	cp	r12, r1
    21ba:	8c e2       	ldi	r24, 0x2C	; 44
    21bc:	d8 06       	cpc	r13, r24
    21be:	81 e0       	ldi	r24, 0x01	; 1
    21c0:	e8 06       	cpc	r14, r24
    21c2:	f1 04       	cpc	r15, r1
    21c4:	d8 f6       	brcc	.-74     	; 0x217c <skorost+0x30>
    21c6:	cc 0c       	add	r12, r12
    21c8:	dd 1c       	adc	r13, r13
    21ca:	ee 1c       	adc	r14, r14
    21cc:	ff 1c       	adc	r15, r15
    21ce:	d6 cf       	rjmp	.-84     	; 0x217c <skorost+0x30>
    21d0:	81 e8       	ldi	r24, 0x81	; 129
    21d2:	c8 16       	cp	r12, r24
    21d4:	85 e2       	ldi	r24, 0x25	; 37
    21d6:	d8 06       	cpc	r13, r24
    21d8:	e1 04       	cpc	r14, r1
    21da:	f1 04       	cpc	r15, r1
    21dc:	78 f2       	brcs	.-98     	; 0x217c <skorost+0x30>
    21de:	f6 94       	lsr	r15
    21e0:	e7 94       	ror	r14
    21e2:	d7 94       	ror	r13
    21e4:	c7 94       	ror	r12
    21e6:	ca cf       	rjmp	.-108    	; 0x217c <skorost+0x30>
    21e8:	27 96       	adiw	r28, 0x07	; 7
    21ea:	0f b6       	in	r0, 0x3f	; 63
    21ec:	f8 94       	cli
    21ee:	de bf       	out	0x3e, r29	; 62
    21f0:	0f be       	out	0x3f, r0	; 63
    21f2:	cd bf       	out	0x3d, r28	; 61
    21f4:	df 91       	pop	r29
    21f6:	cf 91       	pop	r28
    21f8:	ff 90       	pop	r15
    21fa:	ef 90       	pop	r14
    21fc:	df 90       	pop	r13
    21fe:	cf 90       	pop	r12
    2200:	08 95       	ret

00002202 <rezhim>:
    2202:	cf 93       	push	r28
    2204:	80 e2       	ldi	r24, 0x20	; 32
    2206:	91 e0       	ldi	r25, 0x01	; 1
    2208:	0e 94 80 06 	call	0xd00	; 0xd00 <printMenuHeader>
    220c:	80 e0       	ldi	r24, 0x00	; 0
    220e:	90 e0       	ldi	r25, 0x00	; 0
    2210:	0e 94 4f 21 	call	0x429e	; 0x429e <eeprom_read_byte>
    2214:	c8 2f       	mov	r28, r24
    2216:	60 e0       	ldi	r22, 0x00	; 0
    2218:	8a e0       	ldi	r24, 0x0A	; 10
    221a:	0e 94 2f 04 	call	0x85e	; 0x85e <LCD_gotoXY>
    221e:	65 e0       	ldi	r22, 0x05	; 5
    2220:	c1 11       	cpse	r28, r1
    2222:	03 c0       	rjmp	.+6      	; 0x222a <rezhim+0x28>
    2224:	8c e1       	ldi	r24, 0x1C	; 28
    2226:	91 e0       	ldi	r25, 0x01	; 1
    2228:	02 c0       	rjmp	.+4      	; 0x222e <rezhim+0x2c>
    222a:	86 e1       	ldi	r24, 0x16	; 22
    222c:	91 e0       	ldi	r25, 0x01	; 1
    222e:	0e 94 55 06 	call	0xcaa	; 0xcaa <LCD_puts_P>
    2232:	0e 94 7e 0d 	call	0x1afc	; 0x1afc <whileKey>
    2236:	85 30       	cpi	r24, 0x05	; 5
    2238:	51 f0       	breq	.+20     	; 0x224e <rezhim+0x4c>
    223a:	86 30       	cpi	r24, 0x06	; 6
    223c:	61 f0       	breq	.+24     	; 0x2256 <rezhim+0x54>
    223e:	82 30       	cpi	r24, 0x02	; 2
    2240:	71 f4       	brne	.+28     	; 0x225e <rezhim+0x5c>
    2242:	6c 2f       	mov	r22, r28
    2244:	80 e0       	ldi	r24, 0x00	; 0
    2246:	90 e0       	ldi	r25, 0x00	; 0
    2248:	cf 91       	pop	r28
    224a:	0c 94 63 21 	jmp	0x42c6	; 0x42c6 <eeprom_write_byte>
    224e:	c1 11       	cpse	r28, r1
    2250:	e2 cf       	rjmp	.-60     	; 0x2216 <rezhim+0x14>
    2252:	c1 e0       	ldi	r28, 0x01	; 1
    2254:	e0 cf       	rjmp	.-64     	; 0x2216 <rezhim+0x14>
    2256:	c1 30       	cpi	r28, 0x01	; 1
    2258:	f1 f6       	brne	.-68     	; 0x2216 <rezhim+0x14>
    225a:	c0 e0       	ldi	r28, 0x00	; 0
    225c:	dc cf       	rjmp	.-72     	; 0x2216 <rezhim+0x14>
    225e:	cf 91       	pop	r28
    2260:	08 95       	ret

00002262 <printSubMenu>:
    2262:	2f 92       	push	r2
    2264:	3f 92       	push	r3
    2266:	4f 92       	push	r4
    2268:	5f 92       	push	r5
    226a:	6f 92       	push	r6
    226c:	7f 92       	push	r7
    226e:	8f 92       	push	r8
    2270:	9f 92       	push	r9
    2272:	af 92       	push	r10
    2274:	bf 92       	push	r11
    2276:	cf 92       	push	r12
    2278:	df 92       	push	r13
    227a:	ef 92       	push	r14
    227c:	ff 92       	push	r15
    227e:	0f 93       	push	r16
    2280:	1f 93       	push	r17
    2282:	cf 93       	push	r28
    2284:	df 93       	push	r29
    2286:	cd b7       	in	r28, 0x3d	; 61
    2288:	de b7       	in	r29, 0x3e	; 62
    228a:	c8 56       	subi	r28, 0x68	; 104
    228c:	d1 09       	sbc	r29, r1
    228e:	0f b6       	in	r0, 0x3f	; 63
    2290:	f8 94       	cli
    2292:	de bf       	out	0x3e, r29	; 62
    2294:	0f be       	out	0x3f, r0	; 63
    2296:	cd bf       	out	0x3d, r28	; 61
    2298:	4c 01       	movw	r8, r24
    229a:	ce 01       	movw	r24, r28
    229c:	01 96       	adiw	r24, 0x01	; 1
    229e:	7c 01       	movw	r14, r24
    22a0:	83 e6       	ldi	r24, 0x63	; 99
    22a2:	f7 01       	movw	r30, r14
    22a4:	11 92       	st	Z+, r1
    22a6:	8a 95       	dec	r24
    22a8:	e9 f7       	brne	.-6      	; 0x22a4 <printSubMenu+0x42>
    22aa:	a6 2e       	mov	r10, r22
    22ac:	81 e0       	ldi	r24, 0x01	; 1
    22ae:	90 e0       	ldi	r25, 0x00	; 0
    22b0:	6c 01       	movw	r12, r24
    22b2:	02 c0       	rjmp	.+4      	; 0x22b8 <printSubMenu+0x56>
    22b4:	cc 0c       	add	r12, r12
    22b6:	dd 1c       	adc	r13, r13
    22b8:	6a 95       	dec	r22
    22ba:	e2 f7       	brpl	.-8      	; 0x22b4 <printSubMenu+0x52>
    22bc:	01 e0       	ldi	r16, 0x01	; 1
    22be:	10 e0       	ldi	r17, 0x00	; 0
    22c0:	41 2c       	mov	r4, r1
    22c2:	89 e0       	ldi	r24, 0x09	; 9
    22c4:	78 2e       	mov	r7, r24
    22c6:	c8 01       	movw	r24, r16
    22c8:	87 5f       	subi	r24, 0xF7	; 247
    22ca:	9f 4f       	sbci	r25, 0xFF	; 255
    22cc:	0e 94 4f 21 	call	0x429e	; 0x429e <eeprom_read_byte>
    22d0:	80 13       	cpse	r24, r16
    22d2:	18 c0       	rjmp	.+48     	; 0x2304 <printSubMenu+0xa2>
    22d4:	70 9e       	mul	r7, r16
    22d6:	f0 01       	movw	r30, r0
    22d8:	71 9e       	mul	r7, r17
    22da:	f0 0d       	add	r31, r0
    22dc:	11 24       	eor	r1, r1
    22de:	e1 58       	subi	r30, 0x81	; 129
    22e0:	fe 4f       	sbci	r31, 0xFE	; 254
    22e2:	20 85       	ldd	r18, Z+8	; 0x08
    22e4:	30 e0       	ldi	r19, 0x00	; 0
    22e6:	2c 21       	and	r18, r12
    22e8:	3d 21       	and	r19, r13
    22ea:	0a 2c       	mov	r0, r10
    22ec:	02 c0       	rjmp	.+4      	; 0x22f2 <printSubMenu+0x90>
    22ee:	35 95       	asr	r19
    22f0:	27 95       	ror	r18
    22f2:	0a 94       	dec	r0
    22f4:	e2 f7       	brpl	.-8      	; 0x22ee <printSubMenu+0x8c>
    22f6:	23 2b       	or	r18, r19
    22f8:	29 f0       	breq	.+10     	; 0x2304 <printSubMenu+0xa2>
    22fa:	f7 01       	movw	r30, r14
    22fc:	e4 0d       	add	r30, r4
    22fe:	f1 1d       	adc	r31, r1
    2300:	80 83       	st	Z, r24
    2302:	43 94       	inc	r4
    2304:	0f 5f       	subi	r16, 0xFF	; 255
    2306:	1f 4f       	sbci	r17, 0xFF	; 255
    2308:	03 36       	cpi	r16, 0x63	; 99
    230a:	11 05       	cpc	r17, r1
    230c:	e1 f6       	brne	.-72     	; 0x22c6 <printSubMenu+0x64>
    230e:	61 2c       	mov	r6, r1
    2310:	51 2c       	mov	r5, r1
    2312:	77 24       	eor	r7, r7
    2314:	73 94       	inc	r7
    2316:	04 2d       	mov	r16, r4
    2318:	10 e0       	ldi	r17, 0x00	; 0
    231a:	6e 01       	movw	r12, r28
    231c:	f4 e6       	ldi	r31, 0x64	; 100
    231e:	cf 0e       	add	r12, r31
    2320:	d1 1c       	adc	r13, r1
    2322:	18 01       	movw	r2, r16
    2324:	21 e0       	ldi	r18, 0x01	; 1
    2326:	22 1a       	sub	r2, r18
    2328:	31 08       	sbc	r3, r1
    232a:	c4 01       	movw	r24, r8
    232c:	0e 94 80 06 	call	0xd00	; 0xd00 <printMenuHeader>
    2330:	4a e0       	ldi	r20, 0x0A	; 10
    2332:	b6 01       	movw	r22, r12
    2334:	c8 01       	movw	r24, r16
    2336:	0e 94 36 1e 	call	0x3c6c	; 0x3c6c <__itoa_ncheck>
    233a:	f6 01       	movw	r30, r12
    233c:	01 90       	ld	r0, Z+
    233e:	00 20       	and	r0, r0
    2340:	e9 f7       	brne	.-6      	; 0x233c <printSubMenu+0xda>
    2342:	6e 2f       	mov	r22, r30
    2344:	6c 19       	sub	r22, r12
    2346:	c6 01       	movw	r24, r12
    2348:	0e 94 d0 04 	call	0x9a0	; 0x9a0 <LCD_puts>
    234c:	63 e0       	ldi	r22, 0x03	; 3
    234e:	88 e6       	ldi	r24, 0x68	; 104
    2350:	91 e0       	ldi	r25, 0x01	; 1
    2352:	0e 94 55 06 	call	0xcaa	; 0xcaa <LCD_puts_P>
    2356:	57 01       	movw	r10, r14
    2358:	a5 0c       	add	r10, r5
    235a:	b1 1c       	adc	r11, r1
    235c:	41 2c       	mov	r4, r1
    235e:	f5 01       	movw	r30, r10
    2360:	21 91       	ld	r18, Z+
    2362:	5f 01       	movw	r10, r30
    2364:	a9 96       	adiw	r28, 0x29	; 41
    2366:	2f af       	std	Y+63, r18	; 0x3f
    2368:	a9 97       	sbiw	r28, 0x29	; 41
    236a:	22 23       	and	r18, r18
    236c:	c9 f0       	breq	.+50     	; 0x23a0 <printSubMenu+0x13e>
    236e:	43 94       	inc	r4
    2370:	64 2d       	mov	r22, r4
    2372:	81 e0       	ldi	r24, 0x01	; 1
    2374:	0e 94 2f 04 	call	0x85e	; 0x85e <LCD_gotoXY>
    2378:	64 e0       	ldi	r22, 0x04	; 4
    237a:	88 e6       	ldi	r24, 0x68	; 104
    237c:	91 e0       	ldi	r25, 0x01	; 1
    237e:	0e 94 55 06 	call	0xcaa	; 0xcaa <LCD_puts_P>
    2382:	4a e0       	ldi	r20, 0x0A	; 10
    2384:	b6 01       	movw	r22, r12
    2386:	a9 96       	adiw	r28, 0x29	; 41
    2388:	ef ad       	ldd	r30, Y+63	; 0x3f
    238a:	a9 97       	sbiw	r28, 0x29	; 41
    238c:	8e 2f       	mov	r24, r30
    238e:	90 e0       	ldi	r25, 0x00	; 0
    2390:	0e 94 36 1e 	call	0x3c6c	; 0x3c6c <__itoa_ncheck>
    2394:	63 e0       	ldi	r22, 0x03	; 3
    2396:	0e 94 d0 04 	call	0x9a0	; 0x9a0 <LCD_puts>
    239a:	f3 e0       	ldi	r31, 0x03	; 3
    239c:	4f 12       	cpse	r4, r31
    239e:	df cf       	rjmp	.-66     	; 0x235e <printSubMenu+0xfc>
    23a0:	67 2d       	mov	r22, r7
    23a2:	80 e0       	ldi	r24, 0x00	; 0
    23a4:	0e 94 2f 04 	call	0x85e	; 0x85e <LCD_gotoXY>
    23a8:	84 e8       	ldi	r24, 0x84	; 132
    23aa:	0e 94 42 04 	call	0x884	; 0x884 <LCD_putchar>
    23ae:	0e 94 7e 0d 	call	0x1afc	; 0x1afc <whileKey>
    23b2:	85 30       	cpi	r24, 0x05	; 5
    23b4:	f1 f0       	breq	.+60     	; 0x23f2 <printSubMenu+0x190>
    23b6:	38 f4       	brcc	.+14     	; 0x23c6 <printSubMenu+0x164>
    23b8:	82 30       	cpi	r24, 0x02	; 2
    23ba:	31 f1       	breq	.+76     	; 0x2408 <printSubMenu+0x1a6>
    23bc:	83 30       	cpi	r24, 0x03	; 3
    23be:	09 f0       	breq	.+2      	; 0x23c2 <printSubMenu+0x160>
    23c0:	b4 cf       	rjmp	.-152    	; 0x232a <printSubMenu+0xc8>
    23c2:	80 e0       	ldi	r24, 0x00	; 0
    23c4:	25 c0       	rjmp	.+74     	; 0x2410 <printSubMenu+0x1ae>
    23c6:	86 30       	cpi	r24, 0x06	; 6
    23c8:	31 f0       	breq	.+12     	; 0x23d6 <printSubMenu+0x174>
    23ca:	8f 3f       	cpi	r24, 0xFF	; 255
    23cc:	09 f0       	breq	.+2      	; 0x23d0 <printSubMenu+0x16e>
    23ce:	ad cf       	rjmp	.-166    	; 0x232a <printSubMenu+0xc8>
    23d0:	0c 94 00 00 	jmp	0	; 0x0 <__vectors>
    23d4:	aa cf       	rjmp	.-172    	; 0x232a <printSubMenu+0xc8>
    23d6:	86 2d       	mov	r24, r6
    23d8:	90 e0       	ldi	r25, 0x00	; 0
    23da:	82 15       	cp	r24, r2
    23dc:	93 05       	cpc	r25, r3
    23de:	0c f0       	brlt	.+2      	; 0x23e2 <printSubMenu+0x180>
    23e0:	a4 cf       	rjmp	.-184    	; 0x232a <printSubMenu+0xc8>
    23e2:	63 94       	inc	r6
    23e4:	82 e0       	ldi	r24, 0x02	; 2
    23e6:	87 15       	cp	r24, r7
    23e8:	10 f0       	brcs	.+4      	; 0x23ee <printSubMenu+0x18c>
    23ea:	73 94       	inc	r7
    23ec:	9e cf       	rjmp	.-196    	; 0x232a <printSubMenu+0xc8>
    23ee:	53 94       	inc	r5
    23f0:	9c cf       	rjmp	.-200    	; 0x232a <printSubMenu+0xc8>
    23f2:	66 20       	and	r6, r6
    23f4:	09 f4       	brne	.+2      	; 0x23f8 <printSubMenu+0x196>
    23f6:	99 cf       	rjmp	.-206    	; 0x232a <printSubMenu+0xc8>
    23f8:	6a 94       	dec	r6
    23fa:	91 e0       	ldi	r25, 0x01	; 1
    23fc:	79 16       	cp	r7, r25
    23fe:	11 f0       	breq	.+4      	; 0x2404 <printSubMenu+0x1a2>
    2400:	7a 94       	dec	r7
    2402:	93 cf       	rjmp	.-218    	; 0x232a <printSubMenu+0xc8>
    2404:	5a 94       	dec	r5
    2406:	91 cf       	rjmp	.-222    	; 0x232a <printSubMenu+0xc8>
    2408:	f7 01       	movw	r30, r14
    240a:	e6 0d       	add	r30, r6
    240c:	f1 1d       	adc	r31, r1
    240e:	80 81       	ld	r24, Z
    2410:	c8 59       	subi	r28, 0x98	; 152
    2412:	df 4f       	sbci	r29, 0xFF	; 255
    2414:	0f b6       	in	r0, 0x3f	; 63
    2416:	f8 94       	cli
    2418:	de bf       	out	0x3e, r29	; 62
    241a:	0f be       	out	0x3f, r0	; 63
    241c:	cd bf       	out	0x3d, r28	; 61
    241e:	df 91       	pop	r29
    2420:	cf 91       	pop	r28
    2422:	1f 91       	pop	r17
    2424:	0f 91       	pop	r16
    2426:	ff 90       	pop	r15
    2428:	ef 90       	pop	r14
    242a:	df 90       	pop	r13
    242c:	cf 90       	pop	r12
    242e:	bf 90       	pop	r11
    2430:	af 90       	pop	r10
    2432:	9f 90       	pop	r9
    2434:	8f 90       	pop	r8
    2436:	7f 90       	pop	r7
    2438:	6f 90       	pop	r6
    243a:	5f 90       	pop	r5
    243c:	4f 90       	pop	r4
    243e:	3f 90       	pop	r3
    2440:	2f 90       	pop	r2
    2442:	08 95       	ret

00002444 <in_line>:
    2444:	62 e0       	ldi	r22, 0x02	; 2
    2446:	8c e7       	ldi	r24, 0x7C	; 124
    2448:	91 e0       	ldi	r25, 0x01	; 1
    244a:	0c 94 31 11 	jmp	0x2262	; 0x2262 <printSubMenu>

0000244e <viewArch>:
    244e:	cf 92       	push	r12
    2450:	df 92       	push	r13
    2452:	ff 92       	push	r15
    2454:	0f 93       	push	r16
    2456:	1f 93       	push	r17
    2458:	cf 93       	push	r28
    245a:	df 93       	push	r29
    245c:	cd b7       	in	r28, 0x3d	; 61
    245e:	de b7       	in	r29, 0x3e	; 62
    2460:	a9 97       	sbiw	r28, 0x29	; 41
    2462:	0f b6       	in	r0, 0x3f	; 63
    2464:	f8 94       	cli
    2466:	de bf       	out	0x3e, r29	; 62
    2468:	0f be       	out	0x3f, r0	; 63
    246a:	cd bf       	out	0x3d, r28	; 61
    246c:	f8 2e       	mov	r15, r24
    246e:	d6 2e       	mov	r13, r22
    2470:	86 e7       	ldi	r24, 0x76	; 118
    2472:	91 e0       	ldi	r25, 0x01	; 1
    2474:	0e 94 80 06 	call	0xd00	; 0xd00 <printMenuHeader>
    2478:	64 e0       	ldi	r22, 0x04	; 4
    247a:	88 e6       	ldi	r24, 0x68	; 104
    247c:	91 e0       	ldi	r25, 0x01	; 1
    247e:	0e 94 55 06 	call	0xcaa	; 0xcaa <LCD_puts_P>
    2482:	0f 2d       	mov	r16, r15
    2484:	10 e0       	ldi	r17, 0x00	; 0
    2486:	4a e0       	ldi	r20, 0x0A	; 10
    2488:	be 01       	movw	r22, r28
    248a:	6d 5d       	subi	r22, 0xDD	; 221
    248c:	7f 4f       	sbci	r23, 0xFF	; 255
    248e:	c8 01       	movw	r24, r16
    2490:	0e 94 36 1e 	call	0x3c6c	; 0x3c6c <__itoa_ncheck>
    2494:	63 e0       	ldi	r22, 0x03	; 3
    2496:	0e 94 d0 04 	call	0x9a0	; 0x9a0 <LCD_puts>
    249a:	60 e0       	ldi	r22, 0x00	; 0
    249c:	82 e1       	ldi	r24, 0x12	; 18
    249e:	0e 94 2f 04 	call	0x85e	; 0x85e <LCD_gotoXY>
    24a2:	8d 2d       	mov	r24, r13
    24a4:	90 e0       	ldi	r25, 0x00	; 0
    24a6:	4a e0       	ldi	r20, 0x0A	; 10
    24a8:	be 01       	movw	r22, r28
    24aa:	6d 5d       	subi	r22, 0xDD	; 221
    24ac:	7f 4f       	sbci	r23, 0xFF	; 255
    24ae:	01 96       	adiw	r24, 0x01	; 1
    24b0:	0e 94 36 1e 	call	0x3c6c	; 0x3c6c <__itoa_ncheck>
    24b4:	62 e0       	ldi	r22, 0x02	; 2
    24b6:	0e 94 d0 04 	call	0x9a0	; 0x9a0 <LCD_puts>
    24ba:	4d 2d       	mov	r20, r13
    24bc:	6f 2d       	mov	r22, r15
    24be:	81 e0       	ldi	r24, 0x01	; 1
    24c0:	0e 94 91 0b 	call	0x1722	; 0x1722 <send_read_arch>
    24c4:	87 ff       	sbrs	r24, 7
    24c6:	03 c0       	rjmp	.+6      	; 0x24ce <viewArch+0x80>
    24c8:	0e 94 77 06 	call	0xcee	; 0xcee <printTOUT>
    24cc:	1c c0       	rjmp	.+56     	; 0x2506 <viewArch+0xb8>
    24ce:	89 e0       	ldi	r24, 0x09	; 9
    24d0:	80 9f       	mul	r24, r16
    24d2:	f0 01       	movw	r30, r0
    24d4:	81 9f       	mul	r24, r17
    24d6:	f0 0d       	add	r31, r0
    24d8:	11 24       	eor	r1, r1
    24da:	e1 58       	subi	r30, 0x81	; 129
    24dc:	fe 4f       	sbci	r31, 0xFE	; 254
    24de:	80 81       	ld	r24, Z
    24e0:	84 30       	cpi	r24, 0x04	; 4
    24e2:	11 f0       	breq	.+4      	; 0x24e8 <viewArch+0x9a>
    24e4:	80 e0       	ldi	r24, 0x00	; 0
    24e6:	c6 c0       	rjmp	.+396    	; 0x2674 <viewArch+0x226>
    24e8:	de 01       	movw	r26, r28
    24ea:	55 96       	adiw	r26, 0x15	; 21
    24ec:	80 e0       	ldi	r24, 0x00	; 0
    24ee:	90 e0       	ldi	r25, 0x00	; 0
    24f0:	af 01       	movw	r20, r30
    24f2:	9a 01       	movw	r18, r20
    24f4:	28 0f       	add	r18, r24
    24f6:	39 1f       	adc	r19, r25
    24f8:	f9 01       	movw	r30, r18
    24fa:	20 81       	ld	r18, Z
    24fc:	2d 93       	st	X+, r18
    24fe:	01 96       	adiw	r24, 0x01	; 1
    2500:	87 30       	cpi	r24, 0x07	; 7
    2502:	91 05       	cpc	r25, r1
    2504:	b1 f7       	brne	.-20     	; 0x24f2 <viewArch+0xa4>
    2506:	4d 2d       	mov	r20, r13
    2508:	6f 2d       	mov	r22, r15
    250a:	82 e0       	ldi	r24, 0x02	; 2
    250c:	0e 94 91 0b 	call	0x1722	; 0x1722 <send_read_arch>
    2510:	87 ff       	sbrs	r24, 7
    2512:	07 c0       	rjmp	.+14     	; 0x2522 <viewArch+0xd4>
    2514:	0e 94 77 06 	call	0xcee	; 0xcee <printTOUT>
    2518:	f1 2c       	mov	r15, r1
    251a:	cc 24       	eor	r12, r12
    251c:	c3 94       	inc	r12
    251e:	d1 2c       	mov	r13, r1
    2520:	51 c0       	rjmp	.+162    	; 0x25c4 <viewArch+0x176>
    2522:	89 e0       	ldi	r24, 0x09	; 9
    2524:	80 9f       	mul	r24, r16
    2526:	f0 01       	movw	r30, r0
    2528:	81 9f       	mul	r24, r17
    252a:	f0 0d       	add	r31, r0
    252c:	11 24       	eor	r1, r1
    252e:	e1 58       	subi	r30, 0x81	; 129
    2530:	fe 4f       	sbci	r31, 0xFE	; 254
    2532:	80 81       	ld	r24, Z
    2534:	85 30       	cpi	r24, 0x05	; 5
    2536:	b1 f6       	brne	.-84     	; 0x24e4 <viewArch+0x96>
    2538:	de 01       	movw	r26, r28
    253a:	5c 96       	adiw	r26, 0x1c	; 28
    253c:	80 e0       	ldi	r24, 0x00	; 0
    253e:	90 e0       	ldi	r25, 0x00	; 0
    2540:	af 01       	movw	r20, r30
    2542:	9a 01       	movw	r18, r20
    2544:	28 0f       	add	r18, r24
    2546:	39 1f       	adc	r19, r25
    2548:	f9 01       	movw	r30, r18
    254a:	20 81       	ld	r18, Z
    254c:	2d 93       	st	X+, r18
    254e:	01 96       	adiw	r24, 0x01	; 1
    2550:	87 30       	cpi	r24, 0x07	; 7
    2552:	91 05       	cpc	r25, r1
    2554:	b1 f7       	brne	.-20     	; 0x2542 <viewArch+0xf4>
    2556:	e0 cf       	rjmp	.-64     	; 0x2518 <viewArch+0xca>
    2558:	ce 01       	movw	r24, r28
    255a:	46 96       	adiw	r24, 0x16	; 22
    255c:	0e 94 13 06 	call	0xc26	; 0xc26 <printTimeStr.constprop.2>
    2560:	f1 10       	cpse	r15, r1
    2562:	3d c0       	rjmp	.+122    	; 0x25de <viewArch+0x190>
    2564:	ce 01       	movw	r24, r28
    2566:	4d 96       	adiw	r24, 0x1d	; 29
    2568:	0e 94 ee 04 	call	0x9dc	; 0x9dc <printIOStr>
    256c:	63 e0       	ldi	r22, 0x03	; 3
    256e:	80 e0       	ldi	r24, 0x00	; 0
    2570:	0e 94 2f 04 	call	0x85e	; 0x85e <LCD_gotoXY>
    2574:	6b e5       	ldi	r22, 0x5B	; 91
    2576:	71 e0       	ldi	r23, 0x01	; 1
    2578:	ce 01       	movw	r24, r28
    257a:	01 96       	adiw	r24, 0x01	; 1
    257c:	0e 94 1b 1e 	call	0x3c36	; 0x3c36 <strcpy_P>
    2580:	66 ef       	ldi	r22, 0xF6	; 246
    2582:	70 e0       	ldi	r23, 0x00	; 0
    2584:	ce 01       	movw	r24, r28
    2586:	01 96       	adiw	r24, 0x01	; 1
    2588:	0e 94 2b 1e 	call	0x3c56	; 0x3c56 <strcat>
    258c:	8e 8d       	ldd	r24, Y+30	; 0x1e
    258e:	8f 70       	andi	r24, 0x0F	; 15
    2590:	b1 f5       	brne	.+108    	; 0x25fe <viewArch+0x1b0>
    2592:	67 eb       	ldi	r22, 0xB7	; 183
    2594:	70 e0       	ldi	r23, 0x00	; 0
    2596:	ce 01       	movw	r24, r28
    2598:	01 96       	adiw	r24, 0x01	; 1
    259a:	0e 94 10 1e 	call	0x3c20	; 0x3c20 <strcat_P>
    259e:	64 e1       	ldi	r22, 0x14	; 20
    25a0:	ce 01       	movw	r24, r28
    25a2:	01 96       	adiw	r24, 0x01	; 1
    25a4:	0e 94 d0 04 	call	0x9a0	; 0x9a0 <LCD_puts>
    25a8:	0e 94 7e 0d 	call	0x1afc	; 0x1afc <whileKey>
    25ac:	87 30       	cpi	r24, 0x07	; 7
    25ae:	08 f0       	brcs	.+2      	; 0x25b2 <viewArch+0x164>
    25b0:	4f c0       	rjmp	.+158    	; 0x2650 <viewArch+0x202>
    25b2:	85 30       	cpi	r24, 0x05	; 5
    25b4:	08 f0       	brcs	.+2      	; 0x25b8 <viewArch+0x16a>
    25b6:	5e c0       	rjmp	.+188    	; 0x2674 <viewArch+0x226>
    25b8:	83 30       	cpi	r24, 0x03	; 3
    25ba:	09 f4       	brne	.+2      	; 0x25be <viewArch+0x170>
    25bc:	5b c0       	rjmp	.+182    	; 0x2674 <viewArch+0x226>
    25be:	84 30       	cpi	r24, 0x04	; 4
    25c0:	09 f4       	brne	.+2      	; 0x25c4 <viewArch+0x176>
    25c2:	53 c0       	rjmp	.+166    	; 0x266a <viewArch+0x21c>
    25c4:	88 8d       	ldd	r24, Y+24	; 0x18
    25c6:	8f 3f       	cpi	r24, 0xFF	; 255
    25c8:	39 f6       	brne	.-114    	; 0x2558 <viewArch+0x10a>
    25ca:	62 e0       	ldi	r22, 0x02	; 2
    25cc:	80 e0       	ldi	r24, 0x00	; 0
    25ce:	0e 94 2f 04 	call	0x85e	; 0x85e <LCD_gotoXY>
    25d2:	67 e0       	ldi	r22, 0x07	; 7
    25d4:	8b e8       	ldi	r24, 0x8B	; 139
    25d6:	90 e0       	ldi	r25, 0x00	; 0
    25d8:	0e 94 55 06 	call	0xcaa	; 0xcaa <LCD_puts_P>
    25dc:	e5 cf       	rjmp	.-54     	; 0x25a8 <viewArch+0x15a>
    25de:	f1 e0       	ldi	r31, 0x01	; 1
    25e0:	ff 12       	cpse	r15, r31
    25e2:	e2 cf       	rjmp	.-60     	; 0x25a8 <viewArch+0x15a>
    25e4:	69 a1       	ldd	r22, Y+33	; 0x21
    25e6:	7a a1       	ldd	r23, Y+34	; 0x22
    25e8:	76 27       	eor	r23, r22
    25ea:	67 27       	eor	r22, r23
    25ec:	76 27       	eor	r23, r22
    25ee:	8f 8d       	ldd	r24, Y+31	; 0x1f
    25f0:	98 a1       	ldd	r25, Y+32	; 0x20
    25f2:	98 27       	eor	r25, r24
    25f4:	89 27       	eor	r24, r25
    25f6:	98 27       	eor	r25, r24
    25f8:	0e 94 a6 05 	call	0xb4c	; 0xb4c <printMTZStr>
    25fc:	d5 cf       	rjmp	.-86     	; 0x25a8 <viewArch+0x15a>
    25fe:	80 e0       	ldi	r24, 0x00	; 0
    2600:	90 e0       	ldi	r25, 0x00	; 0
    2602:	2e 8d       	ldd	r18, Y+30	; 0x1e
    2604:	30 e0       	ldi	r19, 0x00	; 0
    2606:	a6 01       	movw	r20, r12
    2608:	08 2e       	mov	r0, r24
    260a:	02 c0       	rjmp	.+4      	; 0x2610 <viewArch+0x1c2>
    260c:	44 0f       	add	r20, r20
    260e:	55 1f       	adc	r21, r21
    2610:	0a 94       	dec	r0
    2612:	e2 f7       	brpl	.-8      	; 0x260c <viewArch+0x1be>
    2614:	24 23       	and	r18, r20
    2616:	35 23       	and	r19, r21
    2618:	08 2e       	mov	r0, r24
    261a:	02 c0       	rjmp	.+4      	; 0x2620 <viewArch+0x1d2>
    261c:	35 95       	asr	r19
    261e:	27 95       	ror	r18
    2620:	0a 94       	dec	r0
    2622:	e2 f7       	brpl	.-8      	; 0x261c <viewArch+0x1ce>
    2624:	8c 01       	movw	r16, r24
    2626:	0f 5f       	subi	r16, 0xFF	; 255
    2628:	1f 4f       	sbci	r17, 0xFF	; 255
    262a:	23 2b       	or	r18, r19
    262c:	61 f0       	breq	.+24     	; 0x2646 <viewArch+0x1f8>
    262e:	4a e0       	ldi	r20, 0x0A	; 10
    2630:	be 01       	movw	r22, r28
    2632:	6d 5d       	subi	r22, 0xDD	; 221
    2634:	7f 4f       	sbci	r23, 0xFF	; 255
    2636:	c8 01       	movw	r24, r16
    2638:	0e 94 36 1e 	call	0x3c6c	; 0x3c6c <__itoa_ncheck>
    263c:	bc 01       	movw	r22, r24
    263e:	ce 01       	movw	r24, r28
    2640:	01 96       	adiw	r24, 0x01	; 1
    2642:	0e 94 2b 1e 	call	0x3c56	; 0x3c56 <strcat>
    2646:	c8 01       	movw	r24, r16
    2648:	04 30       	cpi	r16, 0x04	; 4
    264a:	11 05       	cpc	r17, r1
    264c:	d1 f6       	brne	.-76     	; 0x2602 <viewArch+0x1b4>
    264e:	a7 cf       	rjmp	.-178    	; 0x259e <viewArch+0x150>
    2650:	87 30       	cpi	r24, 0x07	; 7
    2652:	31 f0       	breq	.+12     	; 0x2660 <viewArch+0x212>
    2654:	8f 3f       	cpi	r24, 0xFF	; 255
    2656:	09 f0       	breq	.+2      	; 0x265a <viewArch+0x20c>
    2658:	b5 cf       	rjmp	.-150    	; 0x25c4 <viewArch+0x176>
    265a:	0c 94 00 00 	jmp	0	; 0x0 <__vectors>
    265e:	b2 cf       	rjmp	.-156    	; 0x25c4 <viewArch+0x176>
    2660:	f1 10       	cpse	r15, r1
    2662:	b0 cf       	rjmp	.-160    	; 0x25c4 <viewArch+0x176>
    2664:	ff 24       	eor	r15, r15
    2666:	f3 94       	inc	r15
    2668:	ad cf       	rjmp	.-166    	; 0x25c4 <viewArch+0x176>
    266a:	ff 20       	and	r15, r15
    266c:	09 f4       	brne	.+2      	; 0x2670 <viewArch+0x222>
    266e:	aa cf       	rjmp	.-172    	; 0x25c4 <viewArch+0x176>
    2670:	fa 94       	dec	r15
    2672:	a8 cf       	rjmp	.-176    	; 0x25c4 <viewArch+0x176>
    2674:	a9 96       	adiw	r28, 0x29	; 41
    2676:	0f b6       	in	r0, 0x3f	; 63
    2678:	f8 94       	cli
    267a:	de bf       	out	0x3e, r29	; 62
    267c:	0f be       	out	0x3f, r0	; 63
    267e:	cd bf       	out	0x3d, r28	; 61
    2680:	df 91       	pop	r29
    2682:	cf 91       	pop	r28
    2684:	1f 91       	pop	r17
    2686:	0f 91       	pop	r16
    2688:	ff 90       	pop	r15
    268a:	df 90       	pop	r13
    268c:	cf 90       	pop	r12
    268e:	08 95       	ret

00002690 <archieve>:
    2690:	cf 93       	push	r28
    2692:	df 93       	push	r29
    2694:	62 e0       	ldi	r22, 0x02	; 2
    2696:	86 e7       	ldi	r24, 0x76	; 118
    2698:	91 e0       	ldi	r25, 0x01	; 1
    269a:	0e 94 31 11 	call	0x2262	; 0x2262 <printSubMenu>
    269e:	d8 2f       	mov	r29, r24
    26a0:	88 23       	and	r24, r24
    26a2:	91 f0       	breq	.+36     	; 0x26c8 <archieve+0x38>
    26a4:	c0 e0       	ldi	r28, 0x00	; 0
    26a6:	6c 2f       	mov	r22, r28
    26a8:	8d 2f       	mov	r24, r29
    26aa:	0e 94 27 12 	call	0x244e	; 0x244e <viewArch>
    26ae:	85 30       	cpi	r24, 0x05	; 5
    26b0:	19 f0       	breq	.+6      	; 0x26b8 <archieve+0x28>
    26b2:	86 30       	cpi	r24, 0x06	; 6
    26b4:	29 f0       	breq	.+10     	; 0x26c0 <archieve+0x30>
    26b6:	08 c0       	rjmp	.+16     	; 0x26c8 <archieve+0x38>
    26b8:	cc 23       	and	r28, r28
    26ba:	a9 f3       	breq	.-22     	; 0x26a6 <archieve+0x16>
    26bc:	c1 50       	subi	r28, 0x01	; 1
    26be:	f3 cf       	rjmp	.-26     	; 0x26a6 <archieve+0x16>
    26c0:	cf 31       	cpi	r28, 0x1F	; 31
    26c2:	88 f7       	brcc	.-30     	; 0x26a6 <archieve+0x16>
    26c4:	cf 5f       	subi	r28, 0xFF	; 255
    26c6:	ef cf       	rjmp	.-34     	; 0x26a6 <archieve+0x16>
    26c8:	df 91       	pop	r29
    26ca:	cf 91       	pop	r28
    26cc:	08 95       	ret

000026ce <reset>:
    26ce:	cf 93       	push	r28
    26d0:	c8 2f       	mov	r28, r24
    26d2:	0e 94 7e 0d 	call	0x1afc	; 0x1afc <whileKey>
    26d6:	0e 94 21 04 	call	0x842	; 0x842 <LCD_clr>
    26da:	64 e1       	ldi	r22, 0x14	; 20
    26dc:	83 ea       	ldi	r24, 0xA3	; 163
    26de:	90 e0       	ldi	r25, 0x00	; 0
    26e0:	0e 94 55 06 	call	0xcaa	; 0xcaa <LCD_puts_P>
    26e4:	0e 94 7e 0d 	call	0x1afc	; 0x1afc <whileKey>
    26e8:	82 30       	cpi	r24, 0x02	; 2
    26ea:	29 f4       	brne	.+10     	; 0x26f6 <reset+0x28>
    26ec:	62 e0       	ldi	r22, 0x02	; 2
    26ee:	8c 2f       	mov	r24, r28
    26f0:	cf 91       	pop	r28
    26f2:	0c 94 3f 0c 	jmp	0x187e	; 0x187e <send_cmd>
    26f6:	cf 91       	pop	r28
    26f8:	08 95       	ret

000026fa <fault>:
    26fa:	ef 92       	push	r14
    26fc:	ff 92       	push	r15
    26fe:	1f 93       	push	r17
    2700:	cf 93       	push	r28
    2702:	df 93       	push	r29
    2704:	00 d0       	rcall	.+0      	; 0x2706 <fault+0xc>
    2706:	00 d0       	rcall	.+0      	; 0x2708 <fault+0xe>
    2708:	cd b7       	in	r28, 0x3d	; 61
    270a:	de b7       	in	r29, 0x3e	; 62
    270c:	61 e0       	ldi	r22, 0x01	; 1
    270e:	8a e8       	ldi	r24, 0x8A	; 138
    2710:	91 e0       	ldi	r25, 0x01	; 1
    2712:	0e 94 31 11 	call	0x2262	; 0x2262 <printSubMenu>
    2716:	18 2f       	mov	r17, r24
    2718:	88 23       	and	r24, r24
    271a:	09 f4       	brne	.+2      	; 0x271e <fault+0x24>
    271c:	4c c0       	rjmp	.+152    	; 0x27b6 <fault+0xbc>
    271e:	8a e8       	ldi	r24, 0x8A	; 138
    2720:	91 e0       	ldi	r25, 0x01	; 1
    2722:	0e 94 80 06 	call	0xd00	; 0xd00 <printMenuHeader>
    2726:	64 e0       	ldi	r22, 0x04	; 4
    2728:	88 e6       	ldi	r24, 0x68	; 104
    272a:	91 e0       	ldi	r25, 0x01	; 1
    272c:	0e 94 55 06 	call	0xcaa	; 0xcaa <LCD_puts_P>
    2730:	e1 2e       	mov	r14, r17
    2732:	f1 2c       	mov	r15, r1
    2734:	4a e0       	ldi	r20, 0x0A	; 10
    2736:	be 01       	movw	r22, r28
    2738:	6f 5f       	subi	r22, 0xFF	; 255
    273a:	7f 4f       	sbci	r23, 0xFF	; 255
    273c:	c7 01       	movw	r24, r14
    273e:	0e 94 36 1e 	call	0x3c6c	; 0x3c6c <__itoa_ncheck>
    2742:	63 e0       	ldi	r22, 0x03	; 3
    2744:	0e 94 d0 04 	call	0x9a0	; 0x9a0 <LCD_puts>
    2748:	63 e0       	ldi	r22, 0x03	; 3
    274a:	81 2f       	mov	r24, r17
    274c:	0e 94 3f 0c 	call	0x187e	; 0x187e <send_cmd>
    2750:	87 ff       	sbrs	r24, 7
    2752:	03 c0       	rjmp	.+6      	; 0x275a <fault+0x60>
    2754:	0e 94 77 06 	call	0xcee	; 0xcee <printTOUT>
    2758:	27 c0       	rjmp	.+78     	; 0x27a8 <fault+0xae>
    275a:	29 e0       	ldi	r18, 0x09	; 9
    275c:	2e 9d       	mul	r18, r14
    275e:	c0 01       	movw	r24, r0
    2760:	2f 9d       	mul	r18, r15
    2762:	90 0d       	add	r25, r0
    2764:	11 24       	eor	r1, r1
    2766:	9c 01       	movw	r18, r24
    2768:	21 58       	subi	r18, 0x81	; 129
    276a:	3e 4f       	sbci	r19, 0xFE	; 254
    276c:	79 01       	movw	r14, r18
    276e:	f9 01       	movw	r30, r18
    2770:	20 81       	ld	r18, Z
    2772:	23 30       	cpi	r18, 0x03	; 3
    2774:	01 f5       	brne	.+64     	; 0x27b6 <fault+0xbc>
    2776:	80 58       	subi	r24, 0x80	; 128
    2778:	9e 4f       	sbci	r25, 0xFE	; 254
    277a:	0e 94 ee 04 	call	0x9dc	; 0x9dc <printIOStr>
    277e:	63 e0       	ldi	r22, 0x03	; 3
    2780:	80 e0       	ldi	r24, 0x00	; 0
    2782:	0e 94 2f 04 	call	0x85e	; 0x85e <LCD_gotoXY>
    2786:	67 e0       	ldi	r22, 0x07	; 7
    2788:	85 ec       	ldi	r24, 0xC5	; 197
    278a:	90 e0       	ldi	r25, 0x00	; 0
    278c:	0e 94 55 06 	call	0xcaa	; 0xcaa <LCD_puts_P>
    2790:	f7 01       	movw	r30, r14
    2792:	82 81       	ldd	r24, Z+2	; 0x02
    2794:	4a e0       	ldi	r20, 0x0A	; 10
    2796:	be 01       	movw	r22, r28
    2798:	6f 5f       	subi	r22, 0xFF	; 255
    279a:	7f 4f       	sbci	r23, 0xFF	; 255
    279c:	90 e0       	ldi	r25, 0x00	; 0
    279e:	0e 94 36 1e 	call	0x3c6c	; 0x3c6c <__itoa_ncheck>
    27a2:	62 e0       	ldi	r22, 0x02	; 2
    27a4:	0e 94 d0 04 	call	0x9a0	; 0x9a0 <LCD_puts>
    27a8:	0e 94 7e 0d 	call	0x1afc	; 0x1afc <whileKey>
    27ac:	83 30       	cpi	r24, 0x03	; 3
    27ae:	19 f4       	brne	.+6      	; 0x27b6 <fault+0xbc>
    27b0:	81 2f       	mov	r24, r17
    27b2:	0e 94 67 13 	call	0x26ce	; 0x26ce <reset>
    27b6:	0f 90       	pop	r0
    27b8:	0f 90       	pop	r0
    27ba:	0f 90       	pop	r0
    27bc:	0f 90       	pop	r0
    27be:	df 91       	pop	r29
    27c0:	cf 91       	pop	r28
    27c2:	1f 91       	pop	r17
    27c4:	ff 90       	pop	r15
    27c6:	ef 90       	pop	r14
    27c8:	08 95       	ret

000027ca <alarm>:
    27ca:	8f 92       	push	r8
    27cc:	9f 92       	push	r9
    27ce:	af 92       	push	r10
    27d0:	bf 92       	push	r11
    27d2:	cf 92       	push	r12
    27d4:	df 92       	push	r13
    27d6:	ef 92       	push	r14
    27d8:	ff 92       	push	r15
    27da:	0f 93       	push	r16
    27dc:	1f 93       	push	r17
    27de:	cf 93       	push	r28
    27e0:	df 93       	push	r29
    27e2:	00 d0       	rcall	.+0      	; 0x27e4 <alarm+0x1a>
    27e4:	00 d0       	rcall	.+0      	; 0x27e6 <alarm+0x1c>
    27e6:	1f 92       	push	r1
    27e8:	cd b7       	in	r28, 0x3d	; 61
    27ea:	de b7       	in	r29, 0x3e	; 62
    27ec:	88 e9       	ldi	r24, 0x98	; 152
    27ee:	91 e0       	ldi	r25, 0x01	; 1
    27f0:	0e 94 80 06 	call	0xd00	; 0xd00 <printMenuHeader>
    27f4:	aa 24       	eor	r10, r10
    27f6:	a3 94       	inc	r10
    27f8:	b1 2c       	mov	r11, r1
    27fa:	10 e0       	ldi	r17, 0x00	; 0
    27fc:	00 e0       	ldi	r16, 0x00	; 0
    27fe:	ee 24       	eor	r14, r14
    2800:	ea 94       	dec	r14
    2802:	fe 2c       	mov	r15, r14
    2804:	cc 24       	eor	r12, r12
    2806:	ca 94       	dec	r12
    2808:	dc 2c       	mov	r13, r12
    280a:	39 e0       	ldi	r19, 0x09	; 9
    280c:	83 2e       	mov	r8, r19
    280e:	c5 01       	movw	r24, r10
    2810:	87 5f       	subi	r24, 0xF7	; 247
    2812:	9f 4f       	sbci	r25, 0xFF	; 255
    2814:	0e 94 4f 21 	call	0x429e	; 0x429e <eeprom_read_byte>
    2818:	98 2e       	mov	r9, r24
    281a:	8a 11       	cpse	r24, r10
    281c:	2f c0       	rjmp	.+94     	; 0x287c <alarm+0xb2>
    281e:	8a 9c       	mul	r8, r10
    2820:	f0 01       	movw	r30, r0
    2822:	8b 9c       	mul	r8, r11
    2824:	f0 0d       	add	r31, r0
    2826:	11 24       	eor	r1, r1
    2828:	e1 58       	subi	r30, 0x81	; 129
    282a:	fe 4f       	sbci	r31, 0xFE	; 254
    282c:	80 85       	ldd	r24, Z+8	; 0x08
    282e:	80 ff       	sbrs	r24, 0
    2830:	25 c0       	rjmp	.+74     	; 0x287c <alarm+0xb2>
    2832:	11 11       	cpse	r17, r1
    2834:	01 c0       	rjmp	.+2      	; 0x2838 <alarm+0x6e>
    2836:	19 2d       	mov	r17, r9
    2838:	0f 5f       	subi	r16, 0xFF	; 255
    283a:	40 e0       	ldi	r20, 0x00	; 0
    283c:	69 2d       	mov	r22, r9
    283e:	82 e0       	ldi	r24, 0x02	; 2
    2840:	0e 94 91 0b 	call	0x1722	; 0x1722 <send_read_arch>
    2844:	87 ff       	sbrs	r24, 7
    2846:	03 c0       	rjmp	.+6      	; 0x284e <alarm+0x84>
    2848:	0e 94 77 06 	call	0xcee	; 0xcee <printTOUT>
    284c:	17 c0       	rjmp	.+46     	; 0x287c <alarm+0xb2>
    284e:	8a 9c       	mul	r8, r10
    2850:	f0 01       	movw	r30, r0
    2852:	8b 9c       	mul	r8, r11
    2854:	f0 0d       	add	r31, r0
    2856:	11 24       	eor	r1, r1
    2858:	e1 58       	subi	r30, 0x81	; 129
    285a:	fe 4f       	sbci	r31, 0xFE	; 254
    285c:	80 81       	ld	r24, Z
    285e:	85 30       	cpi	r24, 0x05	; 5
    2860:	69 f4       	brne	.+26     	; 0x287c <alarm+0xb2>
    2862:	23 81       	ldd	r18, Z+3	; 0x03
    2864:	84 81       	ldd	r24, Z+4	; 0x04
    2866:	90 e0       	ldi	r25, 0x00	; 0
    2868:	92 2b       	or	r25, r18
    286a:	8c 15       	cp	r24, r12
    286c:	9d 05       	cpc	r25, r13
    286e:	30 f4       	brcc	.+12     	; 0x287c <alarm+0xb2>
    2870:	25 81       	ldd	r18, Z+5	; 0x05
    2872:	e6 80       	ldd	r14, Z+6	; 0x06
    2874:	f1 2c       	mov	r15, r1
    2876:	f2 2a       	or	r15, r18
    2878:	19 2d       	mov	r17, r9
    287a:	6c 01       	movw	r12, r24
    287c:	2f ef       	ldi	r18, 0xFF	; 255
    287e:	a2 1a       	sub	r10, r18
    2880:	b2 0a       	sbc	r11, r18
    2882:	83 e6       	ldi	r24, 0x63	; 99
    2884:	a8 16       	cp	r10, r24
    2886:	b1 04       	cpc	r11, r1
    2888:	11 f6       	brne	.-124    	; 0x280e <alarm+0x44>
    288a:	be 01       	movw	r22, r28
    288c:	6f 5f       	subi	r22, 0xFF	; 255
    288e:	7f 4f       	sbci	r23, 0xFF	; 255
    2890:	fb 01       	movw	r30, r22
    2892:	01 90       	ld	r0, Z+
    2894:	00 20       	and	r0, r0
    2896:	e9 f7       	brne	.-6      	; 0x2892 <alarm+0xc8>
    2898:	31 97       	sbiw	r30, 0x01	; 1
    289a:	5f 01       	movw	r10, r30
    289c:	a6 1a       	sub	r10, r22
    289e:	b7 0a       	sbc	r11, r23
    28a0:	4a e0       	ldi	r20, 0x0A	; 10
    28a2:	80 2f       	mov	r24, r16
    28a4:	90 e0       	ldi	r25, 0x00	; 0
    28a6:	0e 94 36 1e 	call	0x3c6c	; 0x3c6c <__itoa_ncheck>
    28aa:	62 e0       	ldi	r22, 0x02	; 2
    28ac:	6a 0d       	add	r22, r10
    28ae:	0e 94 d0 04 	call	0x9a0	; 0x9a0 <LCD_puts>
    28b2:	64 e0       	ldi	r22, 0x04	; 4
    28b4:	88 e6       	ldi	r24, 0x68	; 104
    28b6:	91 e0       	ldi	r25, 0x01	; 1
    28b8:	0e 94 55 06 	call	0xcaa	; 0xcaa <LCD_puts_P>
    28bc:	11 23       	and	r17, r17
    28be:	e1 f0       	breq	.+56     	; 0x28f8 <alarm+0x12e>
    28c0:	40 e0       	ldi	r20, 0x00	; 0
    28c2:	61 2f       	mov	r22, r17
    28c4:	81 e0       	ldi	r24, 0x01	; 1
    28c6:	0e 94 91 0b 	call	0x1722	; 0x1722 <send_read_arch>
    28ca:	87 ff       	sbrs	r24, 7
    28cc:	03 c0       	rjmp	.+6      	; 0x28d4 <alarm+0x10a>
    28ce:	0e 94 77 06 	call	0xcee	; 0xcee <printTOUT>
    28d2:	12 c0       	rjmp	.+36     	; 0x28f8 <alarm+0x12e>
    28d4:	29 e0       	ldi	r18, 0x09	; 9
    28d6:	12 9f       	mul	r17, r18
    28d8:	c0 01       	movw	r24, r0
    28da:	11 24       	eor	r1, r1
    28dc:	fc 01       	movw	r30, r24
    28de:	e1 58       	subi	r30, 0x81	; 129
    28e0:	fe 4f       	sbci	r31, 0xFE	; 254
    28e2:	20 81       	ld	r18, Z
    28e4:	24 30       	cpi	r18, 0x04	; 4
    28e6:	41 f4       	brne	.+16     	; 0x28f8 <alarm+0x12e>
    28e8:	80 58       	subi	r24, 0x80	; 128
    28ea:	9e 4f       	sbci	r25, 0xFE	; 254
    28ec:	0e 94 13 06 	call	0xc26	; 0xc26 <printTimeStr.constprop.2>
    28f0:	b7 01       	movw	r22, r14
    28f2:	c6 01       	movw	r24, r12
    28f4:	0e 94 a6 05 	call	0xb4c	; 0xb4c <printMTZStr>
    28f8:	0e 94 7e 0d 	call	0x1afc	; 0x1afc <whileKey>
    28fc:	83 30       	cpi	r24, 0x03	; 3
    28fe:	29 f0       	breq	.+10     	; 0x290a <alarm+0x140>
    2900:	8f 3f       	cpi	r24, 0xFF	; 255
    2902:	59 f1       	breq	.+86     	; 0x295a <alarm+0x190>
    2904:	82 30       	cpi	r24, 0x02	; 2
    2906:	c1 f7       	brne	.-16     	; 0x28f8 <alarm+0x12e>
    2908:	06 c0       	rjmp	.+12     	; 0x2916 <alarm+0x14c>
    290a:	00 23       	and	r16, r16
    290c:	31 f1       	breq	.+76     	; 0x295a <alarm+0x190>
    290e:	80 e0       	ldi	r24, 0x00	; 0
    2910:	0e 94 67 13 	call	0x26ce	; 0x26ce <reset>
    2914:	22 c0       	rjmp	.+68     	; 0x295a <alarm+0x190>
    2916:	00 23       	and	r16, r16
    2918:	01 f1       	breq	.+64     	; 0x295a <alarm+0x190>
    291a:	60 e0       	ldi	r22, 0x00	; 0
    291c:	88 e9       	ldi	r24, 0x98	; 152
    291e:	91 e0       	ldi	r25, 0x01	; 1
    2920:	0e 94 31 11 	call	0x2262	; 0x2262 <printSubMenu>
    2924:	08 2f       	mov	r16, r24
    2926:	88 23       	and	r24, r24
    2928:	c1 f0       	breq	.+48     	; 0x295a <alarm+0x190>
    292a:	10 e0       	ldi	r17, 0x00	; 0
    292c:	61 2f       	mov	r22, r17
    292e:	80 2f       	mov	r24, r16
    2930:	0e 94 27 12 	call	0x244e	; 0x244e <viewArch>
    2934:	85 30       	cpi	r24, 0x05	; 5
    2936:	49 f0       	breq	.+18     	; 0x294a <alarm+0x180>
    2938:	18 f4       	brcc	.+6      	; 0x2940 <alarm+0x176>
    293a:	83 30       	cpi	r24, 0x03	; 3
    293c:	71 f0       	breq	.+28     	; 0x295a <alarm+0x190>
    293e:	f6 cf       	rjmp	.-20     	; 0x292c <alarm+0x162>
    2940:	86 30       	cpi	r24, 0x06	; 6
    2942:	39 f0       	breq	.+14     	; 0x2952 <alarm+0x188>
    2944:	8f 3f       	cpi	r24, 0xFF	; 255
    2946:	49 f0       	breq	.+18     	; 0x295a <alarm+0x190>
    2948:	f1 cf       	rjmp	.-30     	; 0x292c <alarm+0x162>
    294a:	11 23       	and	r17, r17
    294c:	79 f3       	breq	.-34     	; 0x292c <alarm+0x162>
    294e:	11 50       	subi	r17, 0x01	; 1
    2950:	ed cf       	rjmp	.-38     	; 0x292c <alarm+0x162>
    2952:	1f 31       	cpi	r17, 0x1F	; 31
    2954:	58 f7       	brcc	.-42     	; 0x292c <alarm+0x162>
    2956:	1f 5f       	subi	r17, 0xFF	; 255
    2958:	e9 cf       	rjmp	.-46     	; 0x292c <alarm+0x162>
    295a:	0f 90       	pop	r0
    295c:	0f 90       	pop	r0
    295e:	0f 90       	pop	r0
    2960:	0f 90       	pop	r0
    2962:	0f 90       	pop	r0
    2964:	df 91       	pop	r29
    2966:	cf 91       	pop	r28
    2968:	1f 91       	pop	r17
    296a:	0f 91       	pop	r16
    296c:	ff 90       	pop	r15
    296e:	ef 90       	pop	r14
    2970:	df 90       	pop	r13
    2972:	cf 90       	pop	r12
    2974:	bf 90       	pop	r11
    2976:	af 90       	pop	r10
    2978:	9f 90       	pop	r9
    297a:	8f 90       	pop	r8
    297c:	08 95       	ret

0000297e <naviMenu>:
    297e:	7f 92       	push	r7
    2980:	8f 92       	push	r8
    2982:	9f 92       	push	r9
    2984:	af 92       	push	r10
    2986:	bf 92       	push	r11
    2988:	cf 92       	push	r12
    298a:	df 92       	push	r13
    298c:	ef 92       	push	r14
    298e:	ff 92       	push	r15
    2990:	0f 93       	push	r16
    2992:	1f 93       	push	r17
    2994:	cf 93       	push	r28
    2996:	df 93       	push	r29
    2998:	cd b7       	in	r28, 0x3d	; 61
    299a:	de b7       	in	r29, 0x3e	; 62
    299c:	64 97       	sbiw	r28, 0x14	; 20
    299e:	0f b6       	in	r0, 0x3f	; 63
    29a0:	f8 94       	cli
    29a2:	de bf       	out	0x3e, r29	; 62
    29a4:	0f be       	out	0x3f, r0	; 63
    29a6:	cd bf       	out	0x3d, r28	; 61
    29a8:	5c 01       	movw	r10, r24
    29aa:	e1 2c       	mov	r14, r1
    29ac:	f5 01       	movw	r30, r10
    29ae:	24 e0       	ldi	r18, 0x04	; 4
    29b0:	e2 9e       	mul	r14, r18
    29b2:	e0 0d       	add	r30, r0
    29b4:	f1 1d       	adc	r31, r1
    29b6:	11 24       	eor	r1, r1
    29b8:	84 81       	ldd	r24, Z+4	; 0x04
    29ba:	95 81       	ldd	r25, Z+5	; 0x05
    29bc:	89 2b       	or	r24, r25
    29be:	11 f0       	breq	.+4      	; 0x29c4 <naviMenu+0x46>
    29c0:	e3 94       	inc	r14
    29c2:	f4 cf       	rjmp	.-24     	; 0x29ac <naviMenu+0x2e>
    29c4:	01 e0       	ldi	r16, 0x01	; 1
    29c6:	f1 2c       	mov	r15, r1
    29c8:	11 e0       	ldi	r17, 0x01	; 1
    29ca:	f5 01       	movw	r30, r10
    29cc:	80 81       	ld	r24, Z
    29ce:	91 81       	ldd	r25, Z+1	; 0x01
    29d0:	0e 94 80 06 	call	0xd00	; 0xd00 <printMenuHeader>
    29d4:	c5 01       	movw	r24, r10
    29d6:	f4 e0       	ldi	r31, 0x04	; 4
    29d8:	ff 9e       	mul	r15, r31
    29da:	80 0d       	add	r24, r0
    29dc:	91 1d       	adc	r25, r1
    29de:	11 24       	eor	r1, r1
    29e0:	9c 01       	movw	r18, r24
    29e2:	2c 5f       	subi	r18, 0xFC	; 252
    29e4:	3f 4f       	sbci	r19, 0xFF	; 255
    29e6:	69 01       	movw	r12, r18
    29e8:	91 2c       	mov	r9, r1
    29ea:	f6 01       	movw	r30, r12
    29ec:	20 81       	ld	r18, Z
    29ee:	31 81       	ldd	r19, Z+1	; 0x01
    29f0:	21 15       	cp	r18, r1
    29f2:	31 05       	cpc	r19, r1
    29f4:	29 f1       	breq	.+74     	; 0x2a40 <naviMenu+0xc2>
    29f6:	de 01       	movw	r26, r28
    29f8:	11 96       	adiw	r26, 0x01	; 1
    29fa:	80 e0       	ldi	r24, 0x00	; 0
    29fc:	90 e0       	ldi	r25, 0x00	; 0
    29fe:	7a 2e       	mov	r7, r26
    2a00:	8b 2e       	mov	r8, r27
    2a02:	f9 01       	movw	r30, r18
    2a04:	e8 0f       	add	r30, r24
    2a06:	f9 1f       	adc	r31, r25
    2a08:	44 91       	lpm	r20, Z
    2a0a:	40 3c       	cpi	r20, 0xC0	; 192
    2a0c:	18 f0       	brcs	.+6      	; 0x2a14 <naviMenu+0x96>
    2a0e:	e4 91       	lpm	r30, Z
    2a10:	e0 5e       	subi	r30, 0xE0	; 224
    2a12:	01 c0       	rjmp	.+2      	; 0x2a16 <naviMenu+0x98>
    2a14:	e4 91       	lpm	r30, Z
    2a16:	ed 93       	st	X+, r30
    2a18:	01 96       	adiw	r24, 0x01	; 1
    2a1a:	83 31       	cpi	r24, 0x13	; 19
    2a1c:	91 05       	cpc	r25, r1
    2a1e:	89 f7       	brne	.-30     	; 0x2a02 <naviMenu+0x84>
    2a20:	93 94       	inc	r9
    2a22:	69 2d       	mov	r22, r9
    2a24:	81 e0       	ldi	r24, 0x01	; 1
    2a26:	0e 94 2f 04 	call	0x85e	; 0x85e <LCD_gotoXY>
    2a2a:	63 e1       	ldi	r22, 0x13	; 19
    2a2c:	87 2d       	mov	r24, r7
    2a2e:	98 2d       	mov	r25, r8
    2a30:	0e 94 d0 04 	call	0x9a0	; 0x9a0 <LCD_puts>
    2a34:	f4 e0       	ldi	r31, 0x04	; 4
    2a36:	cf 0e       	add	r12, r31
    2a38:	d1 1c       	adc	r13, r1
    2a3a:	23 e0       	ldi	r18, 0x03	; 3
    2a3c:	92 12       	cpse	r9, r18
    2a3e:	d5 cf       	rjmp	.-86     	; 0x29ea <naviMenu+0x6c>
    2a40:	61 2f       	mov	r22, r17
    2a42:	80 e0       	ldi	r24, 0x00	; 0
    2a44:	0e 94 2f 04 	call	0x85e	; 0x85e <LCD_gotoXY>
    2a48:	84 e8       	ldi	r24, 0x84	; 132
    2a4a:	0e 94 42 04 	call	0x884	; 0x884 <LCD_putchar>
    2a4e:	0e 94 7e 0d 	call	0x1afc	; 0x1afc <whileKey>
    2a52:	85 30       	cpi	r24, 0x05	; 5
    2a54:	61 f1       	breq	.+88     	; 0x2aae <naviMenu+0x130>
    2a56:	c8 f4       	brcc	.+50     	; 0x2a8a <naviMenu+0x10c>
    2a58:	82 30       	cpi	r24, 0x02	; 2
    2a5a:	99 f1       	breq	.+102    	; 0x2ac2 <naviMenu+0x144>
    2a5c:	83 30       	cpi	r24, 0x03	; 3
    2a5e:	09 f0       	breq	.+2      	; 0x2a62 <naviMenu+0xe4>
    2a60:	b4 cf       	rjmp	.-152    	; 0x29ca <naviMenu+0x4c>
    2a62:	64 96       	adiw	r28, 0x14	; 20
    2a64:	0f b6       	in	r0, 0x3f	; 63
    2a66:	f8 94       	cli
    2a68:	de bf       	out	0x3e, r29	; 62
    2a6a:	0f be       	out	0x3f, r0	; 63
    2a6c:	cd bf       	out	0x3d, r28	; 61
    2a6e:	df 91       	pop	r29
    2a70:	cf 91       	pop	r28
    2a72:	1f 91       	pop	r17
    2a74:	0f 91       	pop	r16
    2a76:	ff 90       	pop	r15
    2a78:	ef 90       	pop	r14
    2a7a:	df 90       	pop	r13
    2a7c:	cf 90       	pop	r12
    2a7e:	bf 90       	pop	r11
    2a80:	af 90       	pop	r10
    2a82:	9f 90       	pop	r9
    2a84:	8f 90       	pop	r8
    2a86:	7f 90       	pop	r7
    2a88:	08 95       	ret
    2a8a:	86 30       	cpi	r24, 0x06	; 6
    2a8c:	31 f0       	breq	.+12     	; 0x2a9a <naviMenu+0x11c>
    2a8e:	8f 3f       	cpi	r24, 0xFF	; 255
    2a90:	09 f0       	breq	.+2      	; 0x2a94 <naviMenu+0x116>
    2a92:	9b cf       	rjmp	.-202    	; 0x29ca <naviMenu+0x4c>
    2a94:	0c 94 00 00 	jmp	0	; 0x0 <__vectors>
    2a98:	98 cf       	rjmp	.-208    	; 0x29ca <naviMenu+0x4c>
    2a9a:	0e 15       	cp	r16, r14
    2a9c:	08 f0       	brcs	.+2      	; 0x2aa0 <naviMenu+0x122>
    2a9e:	95 cf       	rjmp	.-214    	; 0x29ca <naviMenu+0x4c>
    2aa0:	0f 5f       	subi	r16, 0xFF	; 255
    2aa2:	13 30       	cpi	r17, 0x03	; 3
    2aa4:	10 f4       	brcc	.+4      	; 0x2aaa <naviMenu+0x12c>
    2aa6:	1f 5f       	subi	r17, 0xFF	; 255
    2aa8:	90 cf       	rjmp	.-224    	; 0x29ca <naviMenu+0x4c>
    2aaa:	f3 94       	inc	r15
    2aac:	8e cf       	rjmp	.-228    	; 0x29ca <naviMenu+0x4c>
    2aae:	02 30       	cpi	r16, 0x02	; 2
    2ab0:	08 f4       	brcc	.+2      	; 0x2ab4 <naviMenu+0x136>
    2ab2:	8b cf       	rjmp	.-234    	; 0x29ca <naviMenu+0x4c>
    2ab4:	01 50       	subi	r16, 0x01	; 1
    2ab6:	11 30       	cpi	r17, 0x01	; 1
    2ab8:	11 f0       	breq	.+4      	; 0x2abe <naviMenu+0x140>
    2aba:	11 50       	subi	r17, 0x01	; 1
    2abc:	86 cf       	rjmp	.-244    	; 0x29ca <naviMenu+0x4c>
    2abe:	fa 94       	dec	r15
    2ac0:	84 cf       	rjmp	.-248    	; 0x29ca <naviMenu+0x4c>
    2ac2:	f5 01       	movw	r30, r10
    2ac4:	34 e0       	ldi	r19, 0x04	; 4
    2ac6:	03 9f       	mul	r16, r19
    2ac8:	e0 0d       	add	r30, r0
    2aca:	f1 1d       	adc	r31, r1
    2acc:	11 24       	eor	r1, r1
    2ace:	02 80       	ldd	r0, Z+2	; 0x02
    2ad0:	f3 81       	ldd	r31, Z+3	; 0x03
    2ad2:	e0 2d       	mov	r30, r0
    2ad4:	09 95       	icall
    2ad6:	79 cf       	rjmp	.-270    	; 0x29ca <naviMenu+0x4c>

00002ad8 <change_logic>:
    2ad8:	0f 93       	push	r16
    2ada:	1f 93       	push	r17
    2adc:	cf 93       	push	r28
    2ade:	df 93       	push	r29
    2ae0:	0e 94 fa 0a 	call	0x15f4	; 0x15f4 <scansys>
    2ae4:	c1 e0       	ldi	r28, 0x01	; 1
    2ae6:	d0 e0       	ldi	r29, 0x00	; 0
    2ae8:	10 e0       	ldi	r17, 0x00	; 0
    2aea:	09 e0       	ldi	r16, 0x09	; 9
    2aec:	ce 01       	movw	r24, r28
    2aee:	87 5f       	subi	r24, 0xF7	; 247
    2af0:	9f 4f       	sbci	r25, 0xFF	; 255
    2af2:	0e 94 4f 21 	call	0x429e	; 0x429e <eeprom_read_byte>
    2af6:	8c 13       	cpse	r24, r28
    2af8:	0a c0       	rjmp	.+20     	; 0x2b0e <change_logic+0x36>
    2afa:	0c 9f       	mul	r16, r28
    2afc:	f0 01       	movw	r30, r0
    2afe:	0d 9f       	mul	r16, r29
    2b00:	f0 0d       	add	r31, r0
    2b02:	11 24       	eor	r1, r1
    2b04:	e1 58       	subi	r30, 0x81	; 129
    2b06:	fe 4f       	sbci	r31, 0xFE	; 254
    2b08:	80 85       	ldd	r24, Z+8	; 0x08
    2b0a:	82 fd       	sbrc	r24, 2
    2b0c:	1f 5f       	subi	r17, 0xFF	; 255
    2b0e:	21 96       	adiw	r28, 0x01	; 1
    2b10:	c3 36       	cpi	r28, 0x63	; 99
    2b12:	d1 05       	cpc	r29, r1
    2b14:	59 f7       	brne	.-42     	; 0x2aec <change_logic+0x14>
    2b16:	12 30       	cpi	r17, 0x02	; 2
    2b18:	38 f0       	brcs	.+14     	; 0x2b28 <change_logic+0x50>
    2b1a:	0e 94 93 0d 	call	0x1b26	; 0x1b26 <numm>
    2b1e:	90 e0       	ldi	r25, 0x00	; 0
    2b20:	90 93 79 01 	sts	0x0179, r25	; 0x800179 <address+0x1>
    2b24:	80 93 78 01 	sts	0x0178, r24	; 0x800178 <address>
    2b28:	8c e7       	ldi	r24, 0x7C	; 124
    2b2a:	90 e0       	ldi	r25, 0x00	; 0
    2b2c:	df 91       	pop	r29
    2b2e:	cf 91       	pop	r28
    2b30:	1f 91       	pop	r17
    2b32:	0f 91       	pop	r16
    2b34:	0c 94 bf 14 	jmp	0x297e	; 0x297e <naviMenu>

00002b38 <svyaz>:
    2b38:	cf 92       	push	r12
    2b3a:	df 92       	push	r13
    2b3c:	ef 92       	push	r14
    2b3e:	ff 92       	push	r15
    2b40:	cf 93       	push	r28
    2b42:	80 ea       	ldi	r24, 0xA0	; 160
    2b44:	90 e0       	ldi	r25, 0x00	; 0
    2b46:	0e 94 bf 14 	call	0x297e	; 0x297e <naviMenu>
    2b4a:	82 e0       	ldi	r24, 0x02	; 2
    2b4c:	90 e0       	ldi	r25, 0x00	; 0
    2b4e:	0e 94 57 21 	call	0x42ae	; 0x42ae <eeprom_read_dword>
    2b52:	6b 01       	movw	r12, r22
    2b54:	7c 01       	movw	r14, r24
    2b56:	81 e0       	ldi	r24, 0x01	; 1
    2b58:	90 e0       	ldi	r25, 0x00	; 0
    2b5a:	0e 94 4f 21 	call	0x429e	; 0x429e <eeprom_read_byte>
    2b5e:	c8 2f       	mov	r28, r24
    2b60:	80 e0       	ldi	r24, 0x00	; 0
    2b62:	90 e0       	ldi	r25, 0x00	; 0
    2b64:	0e 94 4f 21 	call	0x429e	; 0x429e <eeprom_read_byte>
    2b68:	a7 01       	movw	r20, r14
    2b6a:	96 01       	movw	r18, r12
    2b6c:	6c 2f       	mov	r22, r28
    2b6e:	cf 91       	pop	r28
    2b70:	ff 90       	pop	r15
    2b72:	ef 90       	pop	r14
    2b74:	df 90       	pop	r13
    2b76:	cf 90       	pop	r12
    2b78:	0c 94 f9 1b 	jmp	0x37f2	; 0x37f2 <MODB_init>

00002b7c <progsys>:
    2b7c:	8c ec       	ldi	r24, 0xCC	; 204
    2b7e:	90 e0       	ldi	r25, 0x00	; 0
    2b80:	0c 94 bf 14 	jmp	0x297e	; 0x297e <naviMenu>

00002b84 <nastroyka>:
    2b84:	6f 92       	push	r6
    2b86:	7f 92       	push	r7
    2b88:	8f 92       	push	r8
    2b8a:	9f 92       	push	r9
    2b8c:	af 92       	push	r10
    2b8e:	bf 92       	push	r11
    2b90:	cf 92       	push	r12
    2b92:	df 92       	push	r13
    2b94:	ef 92       	push	r14
    2b96:	ff 92       	push	r15
    2b98:	0f 93       	push	r16
    2b9a:	1f 93       	push	r17
    2b9c:	cf 93       	push	r28
    2b9e:	df 93       	push	r29
    2ba0:	00 d0       	rcall	.+0      	; 0x2ba2 <nastroyka+0x1e>
    2ba2:	00 d0       	rcall	.+0      	; 0x2ba4 <nastroyka+0x20>
    2ba4:	1f 92       	push	r1
    2ba6:	cd b7       	in	r28, 0x3d	; 61
    2ba8:	de b7       	in	r29, 0x3e	; 62
    2baa:	33 e0       	ldi	r19, 0x03	; 3
    2bac:	73 2e       	mov	r7, r19
    2bae:	ee 24       	eor	r14, r14
    2bb0:	e3 94       	inc	r14
    2bb2:	f1 2c       	mov	r15, r1
    2bb4:	00 e0       	ldi	r16, 0x00	; 0
    2bb6:	10 e0       	ldi	r17, 0x00	; 0
    2bb8:	5e e3       	ldi	r21, 0x3E	; 62
    2bba:	c5 2e       	mov	r12, r21
    2bbc:	51 e0       	ldi	r21, 0x01	; 1
    2bbe:	d5 2e       	mov	r13, r21
    2bc0:	ce 01       	movw	r24, r28
    2bc2:	01 96       	adiw	r24, 0x01	; 1
    2bc4:	5c 01       	movw	r10, r24
    2bc6:	6a e0       	ldi	r22, 0x0A	; 10
    2bc8:	86 2e       	mov	r8, r22
    2bca:	91 2c       	mov	r9, r1
    2bcc:	7a e0       	ldi	r23, 0x0A	; 10
    2bce:	67 2e       	mov	r6, r23
    2bd0:	8e e6       	ldi	r24, 0x6E	; 110
    2bd2:	90 e0       	ldi	r25, 0x00	; 0
    2bd4:	0e 94 80 06 	call	0xd00	; 0xd00 <printMenuHeader>
    2bd8:	62 e0       	ldi	r22, 0x02	; 2
    2bda:	80 e0       	ldi	r24, 0x00	; 0
    2bdc:	0e 94 2f 04 	call	0x85e	; 0x85e <LCD_gotoXY>
    2be0:	1f 93       	push	r17
    2be2:	0f 93       	push	r16
    2be4:	df 92       	push	r13
    2be6:	cf 92       	push	r12
    2be8:	bf 92       	push	r11
    2bea:	af 92       	push	r10
    2bec:	0e 94 8c 1e 	call	0x3d18	; 0x3d18 <sprintf>
    2bf0:	64 e0       	ldi	r22, 0x04	; 4
    2bf2:	c5 01       	movw	r24, r10
    2bf4:	0e 94 d0 04 	call	0x9a0	; 0x9a0 <LCD_puts>
    2bf8:	62 e0       	ldi	r22, 0x02	; 2
    2bfa:	87 2d       	mov	r24, r7
    2bfc:	0e 94 2f 04 	call	0x85e	; 0x85e <LCD_gotoXY>
    2c00:	0e 94 19 04 	call	0x832	; 0x832 <LCD_cursorBlink>
    2c04:	0e 94 7e 0d 	call	0x1afc	; 0x1afc <whileKey>
    2c08:	0f 90       	pop	r0
    2c0a:	0f 90       	pop	r0
    2c0c:	0f 90       	pop	r0
    2c0e:	0f 90       	pop	r0
    2c10:	0f 90       	pop	r0
    2c12:	0f 90       	pop	r0
    2c14:	85 30       	cpi	r24, 0x05	; 5
    2c16:	c1 f0       	breq	.+48     	; 0x2c48 <nastroyka+0xc4>
    2c18:	40 f4       	brcc	.+16     	; 0x2c2a <nastroyka+0xa6>
    2c1a:	83 30       	cpi	r24, 0x03	; 3
    2c1c:	09 f4       	brne	.+2      	; 0x2c20 <nastroyka+0x9c>
    2c1e:	57 c0       	rjmp	.+174    	; 0x2cce <nastroyka+0x14a>
    2c20:	e8 f4       	brcc	.+58     	; 0x2c5c <nastroyka+0xd8>
    2c22:	82 30       	cpi	r24, 0x02	; 2
    2c24:	09 f4       	brne	.+2      	; 0x2c28 <nastroyka+0xa4>
    2c26:	45 c0       	rjmp	.+138    	; 0x2cb2 <nastroyka+0x12e>
    2c28:	d3 cf       	rjmp	.-90     	; 0x2bd0 <nastroyka+0x4c>
    2c2a:	87 30       	cpi	r24, 0x07	; 7
    2c2c:	69 f1       	breq	.+90     	; 0x2c88 <nastroyka+0x104>
    2c2e:	28 f0       	brcs	.+10     	; 0x2c3a <nastroyka+0xb6>
    2c30:	8f 3f       	cpi	r24, 0xFF	; 255
    2c32:	71 f6       	brne	.-100    	; 0x2bd0 <nastroyka+0x4c>
    2c34:	0c 94 00 00 	jmp	0	; 0x0 <__vectors>
    2c38:	cb cf       	rjmp	.-106    	; 0x2bd0 <nastroyka+0x4c>
    2c3a:	0e 19       	sub	r16, r14
    2c3c:	1f 09       	sbc	r17, r15
    2c3e:	17 ff       	sbrs	r17, 7
    2c40:	c7 cf       	rjmp	.-114    	; 0x2bd0 <nastroyka+0x4c>
    2c42:	0f e0       	ldi	r16, 0x0F	; 15
    2c44:	17 e2       	ldi	r17, 0x27	; 39
    2c46:	c4 cf       	rjmp	.-120    	; 0x2bd0 <nastroyka+0x4c>
    2c48:	0e 0d       	add	r16, r14
    2c4a:	1f 1d       	adc	r17, r15
    2c4c:	0f 30       	cpi	r16, 0x0F	; 15
    2c4e:	97 e2       	ldi	r25, 0x27	; 39
    2c50:	19 07       	cpc	r17, r25
    2c52:	0c f4       	brge	.+2      	; 0x2c56 <nastroyka+0xd2>
    2c54:	bd cf       	rjmp	.-134    	; 0x2bd0 <nastroyka+0x4c>
    2c56:	00 e0       	ldi	r16, 0x00	; 0
    2c58:	10 e0       	ldi	r17, 0x00	; 0
    2c5a:	ba cf       	rjmp	.-140    	; 0x2bd0 <nastroyka+0x4c>
    2c5c:	88 ee       	ldi	r24, 0xE8	; 232
    2c5e:	e8 16       	cp	r14, r24
    2c60:	83 e0       	ldi	r24, 0x03	; 3
    2c62:	f8 06       	cpc	r15, r24
    2c64:	3c f4       	brge	.+14     	; 0x2c74 <nastroyka+0xf0>
    2c66:	c7 01       	movw	r24, r14
    2c68:	68 9e       	mul	r6, r24
    2c6a:	70 01       	movw	r14, r0
    2c6c:	69 9e       	mul	r6, r25
    2c6e:	f0 0c       	add	r15, r0
    2c70:	11 24       	eor	r1, r1
    2c72:	03 c0       	rjmp	.+6      	; 0x2c7a <nastroyka+0xf6>
    2c74:	ee 24       	eor	r14, r14
    2c76:	e3 94       	inc	r14
    2c78:	f1 2c       	mov	r15, r1
    2c7a:	71 10       	cpse	r7, r1
    2c7c:	03 c0       	rjmp	.+6      	; 0x2c84 <nastroyka+0x100>
    2c7e:	23 e0       	ldi	r18, 0x03	; 3
    2c80:	72 2e       	mov	r7, r18
    2c82:	a6 cf       	rjmp	.-180    	; 0x2bd0 <nastroyka+0x4c>
    2c84:	7a 94       	dec	r7
    2c86:	a4 cf       	rjmp	.-184    	; 0x2bd0 <nastroyka+0x4c>
    2c88:	92 e0       	ldi	r25, 0x02	; 2
    2c8a:	e9 16       	cp	r14, r25
    2c8c:	f1 04       	cpc	r15, r1
    2c8e:	34 f0       	brlt	.+12     	; 0x2c9c <nastroyka+0x118>
    2c90:	c7 01       	movw	r24, r14
    2c92:	b4 01       	movw	r22, r8
    2c94:	0e 94 c6 1d 	call	0x3b8c	; 0x3b8c <__divmodhi4>
    2c98:	7b 01       	movw	r14, r22
    2c9a:	04 c0       	rjmp	.+8      	; 0x2ca4 <nastroyka+0x120>
    2c9c:	88 ee       	ldi	r24, 0xE8	; 232
    2c9e:	e8 2e       	mov	r14, r24
    2ca0:	83 e0       	ldi	r24, 0x03	; 3
    2ca2:	f8 2e       	mov	r15, r24
    2ca4:	83 e0       	ldi	r24, 0x03	; 3
    2ca6:	78 12       	cpse	r7, r24
    2ca8:	02 c0       	rjmp	.+4      	; 0x2cae <nastroyka+0x12a>
    2caa:	71 2c       	mov	r7, r1
    2cac:	91 cf       	rjmp	.-222    	; 0x2bd0 <nastroyka+0x4c>
    2cae:	73 94       	inc	r7
    2cb0:	8f cf       	rjmp	.-226    	; 0x2bd0 <nastroyka+0x4c>
    2cb2:	0e 94 1c 04 	call	0x838	; 0x838 <LCD_visible>
    2cb6:	87 e0       	ldi	r24, 0x07	; 7
    2cb8:	90 e0       	ldi	r25, 0x00	; 0
    2cba:	0e 94 5d 21 	call	0x42ba	; 0x42ba <eeprom_read_word>
    2cbe:	08 17       	cp	r16, r24
    2cc0:	19 07       	cpc	r17, r25
    2cc2:	39 f4       	brne	.+14     	; 0x2cd2 <nastroyka+0x14e>
    2cc4:	84 eb       	ldi	r24, 0xB4	; 180
    2cc6:	90 e0       	ldi	r25, 0x00	; 0
    2cc8:	0e 94 bf 14 	call	0x297e	; 0x297e <naviMenu>
    2ccc:	02 c0       	rjmp	.+4      	; 0x2cd2 <nastroyka+0x14e>
    2cce:	0e 94 1c 04 	call	0x838	; 0x838 <LCD_visible>
    2cd2:	0f 90       	pop	r0
    2cd4:	0f 90       	pop	r0
    2cd6:	0f 90       	pop	r0
    2cd8:	0f 90       	pop	r0
    2cda:	0f 90       	pop	r0
    2cdc:	df 91       	pop	r29
    2cde:	cf 91       	pop	r28
    2ce0:	1f 91       	pop	r17
    2ce2:	0f 91       	pop	r16
    2ce4:	ff 90       	pop	r15
    2ce6:	ef 90       	pop	r14
    2ce8:	df 90       	pop	r13
    2cea:	cf 90       	pop	r12
    2cec:	bf 90       	pop	r11
    2cee:	af 90       	pop	r10
    2cf0:	9f 90       	pop	r9
    2cf2:	8f 90       	pop	r8
    2cf4:	7f 90       	pop	r7
    2cf6:	6f 90       	pop	r6
    2cf8:	08 95       	ret

00002cfa <printRejim>:
    2cfa:	ef 92       	push	r14
    2cfc:	ff 92       	push	r15
    2cfe:	0f 93       	push	r16
    2d00:	1f 93       	push	r17
    2d02:	cf 93       	push	r28
    2d04:	df 93       	push	r29
    2d06:	cd b7       	in	r28, 0x3d	; 61
    2d08:	de b7       	in	r29, 0x3e	; 62
    2d0a:	6e 97       	sbiw	r28, 0x1e	; 30
    2d0c:	0f b6       	in	r0, 0x3f	; 63
    2d0e:	f8 94       	cli
    2d10:	de bf       	out	0x3e, r29	; 62
    2d12:	0f be       	out	0x3f, r0	; 63
    2d14:	cd bf       	out	0x3d, r28	; 61
    2d16:	ce 01       	movw	r24, r28
    2d18:	01 96       	adiw	r24, 0x01	; 1
    2d1a:	7c 01       	movw	r14, r24
    2d1c:	8e e1       	ldi	r24, 0x1E	; 30
    2d1e:	f7 01       	movw	r30, r14
    2d20:	11 92       	st	Z+, r1
    2d22:	8a 95       	dec	r24
    2d24:	e9 f7       	brne	.-6      	; 0x2d20 <printRejim+0x26>
    2d26:	ed ea       	ldi	r30, 0xAD	; 173
    2d28:	f1 e0       	ldi	r31, 0x01	; 1
    2d2a:	85 91       	lpm	r24, Z+
    2d2c:	94 91       	lpm	r25, Z
    2d2e:	89 83       	std	Y+1, r24	; 0x01
    2d30:	e7 ea       	ldi	r30, 0xA7	; 167
    2d32:	f1 e0       	ldi	r31, 0x01	; 1
    2d34:	85 91       	lpm	r24, Z+
    2d36:	94 91       	lpm	r25, Z
    2d38:	8b 87       	std	Y+11, r24	; 0x0b
    2d3a:	e0 ef       	ldi	r30, 0xF0	; 240
    2d3c:	f1 e0       	ldi	r31, 0x01	; 1
    2d3e:	e4 91       	lpm	r30, Z
    2d40:	ed 8b       	std	Y+21, r30	; 0x15
    2d42:	8c ed       	ldi	r24, 0xDC	; 220
    2d44:	91 e0       	ldi	r25, 0x01	; 1
    2d46:	0e 94 80 06 	call	0xd00	; 0xd00 <printMenuHeader>
    2d4a:	60 e0       	ldi	r22, 0x00	; 0
    2d4c:	81 e0       	ldi	r24, 0x01	; 1
    2d4e:	0e 94 2f 04 	call	0x85e	; 0x85e <LCD_gotoXY>
    2d52:	64 e1       	ldi	r22, 0x14	; 20
    2d54:	83 e4       	ldi	r24, 0x43	; 67
    2d56:	91 e0       	ldi	r25, 0x01	; 1
    2d58:	0e 94 d0 04 	call	0x9a0	; 0x9a0 <LCD_puts>
    2d5c:	62 e0       	ldi	r22, 0x02	; 2
    2d5e:	85 e0       	ldi	r24, 0x05	; 5
    2d60:	0e 94 2f 04 	call	0x85e	; 0x85e <LCD_gotoXY>
    2d64:	10 e0       	ldi	r17, 0x00	; 0
    2d66:	0a e0       	ldi	r16, 0x0A	; 10
    2d68:	62 e0       	ldi	r22, 0x02	; 2
    2d6a:	80 e0       	ldi	r24, 0x00	; 0
    2d6c:	0e 94 2f 04 	call	0x85e	; 0x85e <LCD_gotoXY>
    2d70:	64 e1       	ldi	r22, 0x14	; 20
    2d72:	c7 01       	movw	r24, r14
    2d74:	01 9f       	mul	r16, r17
    2d76:	80 0d       	add	r24, r0
    2d78:	91 1d       	adc	r25, r1
    2d7a:	11 24       	eor	r1, r1
    2d7c:	0e 94 d0 04 	call	0x9a0	; 0x9a0 <LCD_puts>
    2d80:	0e 94 7e 0d 	call	0x1afc	; 0x1afc <whileKey>
    2d84:	85 30       	cpi	r24, 0x05	; 5
    2d86:	f1 f0       	breq	.+60     	; 0x2dc4 <printRejim+0xca>
    2d88:	80 f4       	brcc	.+32     	; 0x2daa <printRejim+0xb0>
    2d8a:	82 50       	subi	r24, 0x02	; 2
    2d8c:	82 30       	cpi	r24, 0x02	; 2
    2d8e:	60 f7       	brcc	.-40     	; 0x2d68 <printRejim+0x6e>
    2d90:	6e 96       	adiw	r28, 0x1e	; 30
    2d92:	0f b6       	in	r0, 0x3f	; 63
    2d94:	f8 94       	cli
    2d96:	de bf       	out	0x3e, r29	; 62
    2d98:	0f be       	out	0x3f, r0	; 63
    2d9a:	cd bf       	out	0x3d, r28	; 61
    2d9c:	df 91       	pop	r29
    2d9e:	cf 91       	pop	r28
    2da0:	1f 91       	pop	r17
    2da2:	0f 91       	pop	r16
    2da4:	ff 90       	pop	r15
    2da6:	ef 90       	pop	r14
    2da8:	08 95       	ret
    2daa:	86 30       	cpi	r24, 0x06	; 6
    2dac:	29 f0       	breq	.+10     	; 0x2db8 <printRejim+0xbe>
    2dae:	8f 3f       	cpi	r24, 0xFF	; 255
    2db0:	d9 f6       	brne	.-74     	; 0x2d68 <printRejim+0x6e>
    2db2:	0c 94 00 00 	jmp	0	; 0x0 <__vectors>
    2db6:	d8 cf       	rjmp	.-80     	; 0x2d68 <printRejim+0x6e>
    2db8:	12 30       	cpi	r17, 0x02	; 2
    2dba:	11 f4       	brne	.+4      	; 0x2dc0 <printRejim+0xc6>
    2dbc:	10 e0       	ldi	r17, 0x00	; 0
    2dbe:	d4 cf       	rjmp	.-88     	; 0x2d68 <printRejim+0x6e>
    2dc0:	1f 5f       	subi	r17, 0xFF	; 255
    2dc2:	d2 cf       	rjmp	.-92     	; 0x2d68 <printRejim+0x6e>
    2dc4:	11 11       	cpse	r17, r1
    2dc6:	02 c0       	rjmp	.+4      	; 0x2dcc <printRejim+0xd2>
    2dc8:	12 e0       	ldi	r17, 0x02	; 2
    2dca:	ce cf       	rjmp	.-100    	; 0x2d68 <printRejim+0x6e>
    2dcc:	11 50       	subi	r17, 0x01	; 1
    2dce:	cc cf       	rjmp	.-104    	; 0x2d68 <printRejim+0x6e>

00002dd0 <printPodmenu>:
    2dd0:	5f 92       	push	r5
    2dd2:	6f 92       	push	r6
    2dd4:	7f 92       	push	r7
    2dd6:	8f 92       	push	r8
    2dd8:	9f 92       	push	r9
    2dda:	af 92       	push	r10
    2ddc:	bf 92       	push	r11
    2dde:	cf 92       	push	r12
    2de0:	df 92       	push	r13
    2de2:	ef 92       	push	r14
    2de4:	ff 92       	push	r15
    2de6:	0f 93       	push	r16
    2de8:	1f 93       	push	r17
    2dea:	cf 93       	push	r28
    2dec:	df 93       	push	r29
    2dee:	00 d0       	rcall	.+0      	; 0x2df0 <printPodmenu+0x20>
    2df0:	00 d0       	rcall	.+0      	; 0x2df2 <printPodmenu+0x22>
    2df2:	00 d0       	rcall	.+0      	; 0x2df4 <printPodmenu+0x24>
    2df4:	cd b7       	in	r28, 0x3d	; 61
    2df6:	de b7       	in	r29, 0x3e	; 62
    2df8:	58 2e       	mov	r5, r24
    2dfa:	82 e2       	ldi	r24, 0x22	; 34
    2dfc:	92 e0       	ldi	r25, 0x02	; 2
    2dfe:	0e 94 80 06 	call	0xd00	; 0xd00 <printMenuHeader>
    2e02:	61 e0       	ldi	r22, 0x01	; 1
    2e04:	80 e0       	ldi	r24, 0x00	; 0
    2e06:	0e 94 2f 04 	call	0x85e	; 0x85e <LCD_gotoXY>
    2e0a:	84 e8       	ldi	r24, 0x84	; 132
    2e0c:	0e 94 42 04 	call	0x884	; 0x884 <LCD_putchar>
    2e10:	61 e0       	ldi	r22, 0x01	; 1
    2e12:	81 e0       	ldi	r24, 0x01	; 1
    2e14:	0e 94 2f 04 	call	0x85e	; 0x85e <LCD_gotoXY>
    2e18:	6a e0       	ldi	r22, 0x0A	; 10
    2e1a:	85 ed       	ldi	r24, 0xD5	; 213
    2e1c:	91 e0       	ldi	r25, 0x01	; 1
    2e1e:	0e 94 55 06 	call	0xcaa	; 0xcaa <LCD_puts_P>
    2e22:	62 e0       	ldi	r22, 0x02	; 2
    2e24:	81 e0       	ldi	r24, 0x01	; 1
    2e26:	0e 94 2f 04 	call	0x85e	; 0x85e <LCD_gotoXY>
    2e2a:	64 e1       	ldi	r22, 0x14	; 20
    2e2c:	8c ed       	ldi	r24, 0xDC	; 220
    2e2e:	91 e0       	ldi	r25, 0x01	; 1
    2e30:	0e 94 55 06 	call	0xcaa	; 0xcaa <LCD_puts_P>
    2e34:	77 24       	eor	r7, r7
    2e36:	73 94       	inc	r7
    2e38:	cc 24       	eor	r12, r12
    2e3a:	c3 94       	inc	r12
    2e3c:	d1 2c       	mov	r13, r1
    2e3e:	85 2c       	mov	r8, r5
    2e40:	91 2c       	mov	r9, r1
    2e42:	39 e0       	ldi	r19, 0x09	; 9
    2e44:	63 2e       	mov	r6, r19
    2e46:	ce 01       	movw	r24, r28
    2e48:	01 96       	adiw	r24, 0x01	; 1
    2e4a:	5c 01       	movw	r10, r24
    2e4c:	0e 94 7e 0d 	call	0x1afc	; 0x1afc <whileKey>
    2e50:	85 30       	cpi	r24, 0x05	; 5
    2e52:	09 f4       	brne	.+2      	; 0x2e56 <printPodmenu+0x86>
    2e54:	40 c0       	rjmp	.+128    	; 0x2ed6 <printPodmenu+0x106>
    2e56:	d8 f4       	brcc	.+54     	; 0x2e8e <printPodmenu+0xbe>
    2e58:	82 30       	cpi	r24, 0x02	; 2
    2e5a:	09 f4       	brne	.+2      	; 0x2e5e <printPodmenu+0x8e>
    2e5c:	60 c0       	rjmp	.+192    	; 0x2f1e <printPodmenu+0x14e>
    2e5e:	83 30       	cpi	r24, 0x03	; 3
    2e60:	a9 f7       	brne	.-22     	; 0x2e4c <printPodmenu+0x7c>
    2e62:	26 96       	adiw	r28, 0x06	; 6
    2e64:	0f b6       	in	r0, 0x3f	; 63
    2e66:	f8 94       	cli
    2e68:	de bf       	out	0x3e, r29	; 62
    2e6a:	0f be       	out	0x3f, r0	; 63
    2e6c:	cd bf       	out	0x3d, r28	; 61
    2e6e:	df 91       	pop	r29
    2e70:	cf 91       	pop	r28
    2e72:	1f 91       	pop	r17
    2e74:	0f 91       	pop	r16
    2e76:	ff 90       	pop	r15
    2e78:	ef 90       	pop	r14
    2e7a:	df 90       	pop	r13
    2e7c:	cf 90       	pop	r12
    2e7e:	bf 90       	pop	r11
    2e80:	af 90       	pop	r10
    2e82:	9f 90       	pop	r9
    2e84:	8f 90       	pop	r8
    2e86:	7f 90       	pop	r7
    2e88:	6f 90       	pop	r6
    2e8a:	5f 90       	pop	r5
    2e8c:	08 95       	ret
    2e8e:	86 30       	cpi	r24, 0x06	; 6
    2e90:	29 f0       	breq	.+10     	; 0x2e9c <printPodmenu+0xcc>
    2e92:	8f 3f       	cpi	r24, 0xFF	; 255
    2e94:	d9 f6       	brne	.-74     	; 0x2e4c <printPodmenu+0x7c>
    2e96:	0c 94 00 00 	jmp	0	; 0x0 <__vectors>
    2e9a:	d8 cf       	rjmp	.-80     	; 0x2e4c <printPodmenu+0x7c>
    2e9c:	92 e0       	ldi	r25, 0x02	; 2
    2e9e:	79 12       	cpse	r7, r25
    2ea0:	11 c0       	rjmp	.+34     	; 0x2ec4 <printPodmenu+0xf4>
    2ea2:	62 e0       	ldi	r22, 0x02	; 2
    2ea4:	80 e0       	ldi	r24, 0x00	; 0
    2ea6:	0e 94 2f 04 	call	0x85e	; 0x85e <LCD_gotoXY>
    2eaa:	80 e2       	ldi	r24, 0x20	; 32
    2eac:	0e 94 42 04 	call	0x884	; 0x884 <LCD_putchar>
    2eb0:	61 e0       	ldi	r22, 0x01	; 1
    2eb2:	80 e0       	ldi	r24, 0x00	; 0
    2eb4:	0e 94 2f 04 	call	0x85e	; 0x85e <LCD_gotoXY>
    2eb8:	84 e8       	ldi	r24, 0x84	; 132
    2eba:	0e 94 42 04 	call	0x884	; 0x884 <LCD_putchar>
    2ebe:	77 24       	eor	r7, r7
    2ec0:	73 94       	inc	r7
    2ec2:	c4 cf       	rjmp	.-120    	; 0x2e4c <printPodmenu+0x7c>
    2ec4:	67 2d       	mov	r22, r7
    2ec6:	80 e0       	ldi	r24, 0x00	; 0
    2ec8:	0e 94 2f 04 	call	0x85e	; 0x85e <LCD_gotoXY>
    2ecc:	80 e2       	ldi	r24, 0x20	; 32
    2ece:	0e 94 42 04 	call	0x884	; 0x884 <LCD_putchar>
    2ed2:	73 94       	inc	r7
    2ed4:	1c c0       	rjmp	.+56     	; 0x2f0e <printPodmenu+0x13e>
    2ed6:	e1 e0       	ldi	r30, 0x01	; 1
    2ed8:	7e 12       	cpse	r7, r30
    2eda:	11 c0       	rjmp	.+34     	; 0x2efe <printPodmenu+0x12e>
    2edc:	61 e0       	ldi	r22, 0x01	; 1
    2ede:	80 e0       	ldi	r24, 0x00	; 0
    2ee0:	0e 94 2f 04 	call	0x85e	; 0x85e <LCD_gotoXY>
    2ee4:	80 e2       	ldi	r24, 0x20	; 32
    2ee6:	0e 94 42 04 	call	0x884	; 0x884 <LCD_putchar>
    2eea:	62 e0       	ldi	r22, 0x02	; 2
    2eec:	80 e0       	ldi	r24, 0x00	; 0
    2eee:	0e 94 2f 04 	call	0x85e	; 0x85e <LCD_gotoXY>
    2ef2:	84 e8       	ldi	r24, 0x84	; 132
    2ef4:	0e 94 42 04 	call	0x884	; 0x884 <LCD_putchar>
    2ef8:	92 e0       	ldi	r25, 0x02	; 2
    2efa:	79 2e       	mov	r7, r25
    2efc:	a7 cf       	rjmp	.-178    	; 0x2e4c <printPodmenu+0x7c>
    2efe:	67 2d       	mov	r22, r7
    2f00:	80 e0       	ldi	r24, 0x00	; 0
    2f02:	0e 94 2f 04 	call	0x85e	; 0x85e <LCD_gotoXY>
    2f06:	80 e2       	ldi	r24, 0x20	; 32
    2f08:	0e 94 42 04 	call	0x884	; 0x884 <LCD_putchar>
    2f0c:	7a 94       	dec	r7
    2f0e:	67 2d       	mov	r22, r7
    2f10:	80 e0       	ldi	r24, 0x00	; 0
    2f12:	0e 94 2f 04 	call	0x85e	; 0x85e <LCD_gotoXY>
    2f16:	84 e8       	ldi	r24, 0x84	; 132
    2f18:	0e 94 42 04 	call	0x884	; 0x884 <LCD_putchar>
    2f1c:	97 cf       	rjmp	.-210    	; 0x2e4c <printPodmenu+0x7c>
    2f1e:	f1 e0       	ldi	r31, 0x01	; 1
    2f20:	7f 12       	cpse	r7, r31
    2f22:	54 c1       	rjmp	.+680    	; 0x31cc <printPodmenu+0x3fc>
    2f24:	60 91 78 01 	lds	r22, 0x0178	; 0x800178 <address>
    2f28:	70 91 79 01 	lds	r23, 0x0179	; 0x800179 <address+0x1>
    2f2c:	61 15       	cp	r22, r1
    2f2e:	71 05       	cpc	r23, r1
    2f30:	e1 f1       	breq	.+120    	; 0x2faa <printPodmenu+0x1da>
    2f32:	96 e0       	ldi	r25, 0x06	; 6
    2f34:	f5 01       	movw	r30, r10
    2f36:	29 2f       	mov	r18, r25
    2f38:	11 92       	st	Z+, r1
    2f3a:	2a 95       	dec	r18
    2f3c:	e9 f7       	brne	.-6      	; 0x2f38 <printPodmenu+0x168>
    2f3e:	99 83       	std	Y+1, r25	; 0x01
    2f40:	66 9e       	mul	r6, r22
    2f42:	f0 01       	movw	r30, r0
    2f44:	67 9e       	mul	r6, r23
    2f46:	f0 0d       	add	r31, r0
    2f48:	11 24       	eor	r1, r1
    2f4a:	e1 58       	subi	r30, 0x81	; 129
    2f4c:	fe 4f       	sbci	r31, 0xFE	; 254
    2f4e:	80 87       	std	Z+8, r24	; 0x08
    2f50:	07 2e       	mov	r0, r23
    2f52:	00 0c       	add	r0, r0
    2f54:	88 0b       	sbc	r24, r24
    2f56:	99 0b       	sbc	r25, r25
    2f58:	07 ef       	ldi	r16, 0xF7	; 247
    2f5a:	95 01       	movw	r18, r10
    2f5c:	42 e0       	ldi	r20, 0x02	; 2
    2f5e:	0e 94 8c 07 	call	0xf18	; 0xf18 <CAN_loadTXbuf>
    2f62:	82 eb       	ldi	r24, 0xB2	; 178
    2f64:	91 e0       	ldi	r25, 0x01	; 1
    2f66:	0e 94 80 06 	call	0xd00	; 0xd00 <printMenuHeader>
    2f6a:	80 91 78 01 	lds	r24, 0x0178	; 0x800178 <address>
    2f6e:	0e 94 71 01 	call	0x2e2	; 0x2e2 <checkTOUT>
    2f72:	87 fd       	sbrc	r24, 7
    2f74:	0e c0       	rjmp	.+28     	; 0x2f92 <printPodmenu+0x1c2>
    2f76:	80 91 78 01 	lds	r24, 0x0178	; 0x800178 <address>
    2f7a:	90 91 79 01 	lds	r25, 0x0179	; 0x800179 <address+0x1>
    2f7e:	68 9e       	mul	r6, r24
    2f80:	f0 01       	movw	r30, r0
    2f82:	69 9e       	mul	r6, r25
    2f84:	f0 0d       	add	r31, r0
    2f86:	11 24       	eor	r1, r1
    2f88:	e1 58       	subi	r30, 0x81	; 129
    2f8a:	fe 4f       	sbci	r31, 0xFE	; 254
    2f8c:	80 81       	ld	r24, Z
    2f8e:	86 30       	cpi	r24, 0x06	; 6
    2f90:	61 f0       	breq	.+24     	; 0x2faa <printPodmenu+0x1da>
    2f92:	0e 94 77 06 	call	0xcee	; 0xcee <printTOUT>
    2f96:	8f ef       	ldi	r24, 0xFF	; 255
    2f98:	97 ea       	ldi	r25, 0xA7	; 167
    2f9a:	e1 e6       	ldi	r30, 0x61	; 97
    2f9c:	81 50       	subi	r24, 0x01	; 1
    2f9e:	90 40       	sbci	r25, 0x00	; 0
    2fa0:	e0 40       	sbci	r30, 0x00	; 0
    2fa2:	e1 f7       	brne	.-8      	; 0x2f9c <printPodmenu+0x1cc>
    2fa4:	00 c0       	rjmp	.+0      	; 0x2fa6 <printPodmenu+0x1d6>
    2fa6:	00 00       	nop
    2fa8:	51 cf       	rjmp	.-350    	; 0x2e4c <printPodmenu+0x7c>
    2faa:	80 91 78 01 	lds	r24, 0x0178	; 0x800178 <address>
    2fae:	90 91 79 01 	lds	r25, 0x0179	; 0x800179 <address+0x1>
    2fb2:	00 97       	sbiw	r24, 0x00	; 0
    2fb4:	59 f0       	breq	.+22     	; 0x2fcc <printPodmenu+0x1fc>
    2fb6:	68 9e       	mul	r6, r24
    2fb8:	f0 01       	movw	r30, r0
    2fba:	69 9e       	mul	r6, r25
    2fbc:	f0 0d       	add	r31, r0
    2fbe:	11 24       	eor	r1, r1
    2fc0:	e1 58       	subi	r30, 0x81	; 129
    2fc2:	fe 4f       	sbci	r31, 0xFE	; 254
    2fc4:	e8 0d       	add	r30, r8
    2fc6:	f9 1d       	adc	r31, r9
    2fc8:	e0 80       	ld	r14, Z
    2fca:	01 c0       	rjmp	.+2      	; 0x2fce <printPodmenu+0x1fe>
    2fcc:	e1 2c       	mov	r14, r1
    2fce:	85 ed       	ldi	r24, 0xD5	; 213
    2fd0:	91 e0       	ldi	r25, 0x01	; 1
    2fd2:	0e 94 80 06 	call	0xd00	; 0xd00 <printMenuHeader>
    2fd6:	61 e0       	ldi	r22, 0x01	; 1
    2fd8:	80 e0       	ldi	r24, 0x00	; 0
    2fda:	0e 94 2f 04 	call	0x85e	; 0x85e <LCD_gotoXY>
    2fde:	84 e8       	ldi	r24, 0x84	; 132
    2fe0:	0e 94 42 04 	call	0x884	; 0x884 <LCD_putchar>
    2fe4:	61 e0       	ldi	r22, 0x01	; 1
    2fe6:	81 e0       	ldi	r24, 0x01	; 1
    2fe8:	0e 94 2f 04 	call	0x85e	; 0x85e <LCD_gotoXY>
    2fec:	65 e0       	ldi	r22, 0x05	; 5
    2fee:	8f ec       	ldi	r24, 0xCF	; 207
    2ff0:	91 e0       	ldi	r25, 0x01	; 1
    2ff2:	0e 94 55 06 	call	0xcaa	; 0xcaa <LCD_puts_P>
    2ff6:	61 e0       	ldi	r22, 0x01	; 1
    2ff8:	8b e0       	ldi	r24, 0x0B	; 11
    2ffa:	0e 94 2f 04 	call	0x85e	; 0x85e <LCD_gotoXY>
    2ffe:	65 e0       	ldi	r22, 0x05	; 5
    3000:	89 ec       	ldi	r24, 0xC9	; 201
    3002:	91 e0       	ldi	r25, 0x01	; 1
    3004:	0e 94 55 06 	call	0xcaa	; 0xcaa <LCD_puts_P>
    3008:	62 e0       	ldi	r22, 0x02	; 2
    300a:	81 e0       	ldi	r24, 0x01	; 1
    300c:	0e 94 2f 04 	call	0x85e	; 0x85e <LCD_gotoXY>
    3010:	65 e0       	ldi	r22, 0x05	; 5
    3012:	83 ec       	ldi	r24, 0xC3	; 195
    3014:	91 e0       	ldi	r25, 0x01	; 1
    3016:	0e 94 55 06 	call	0xcaa	; 0xcaa <LCD_puts_P>
    301a:	62 e0       	ldi	r22, 0x02	; 2
    301c:	8b e0       	ldi	r24, 0x0B	; 11
    301e:	0e 94 2f 04 	call	0x85e	; 0x85e <LCD_gotoXY>
    3022:	65 e0       	ldi	r22, 0x05	; 5
    3024:	8d eb       	ldi	r24, 0xBD	; 189
    3026:	91 e0       	ldi	r25, 0x01	; 1
    3028:	0e 94 55 06 	call	0xcaa	; 0xcaa <LCD_puts_P>
    302c:	f1 2c       	mov	r15, r1
    302e:	01 e0       	ldi	r16, 0x01	; 1
    3030:	10 e0       	ldi	r17, 0x00	; 0
    3032:	61 e0       	ldi	r22, 0x01	; 1
    3034:	86 e0       	ldi	r24, 0x06	; 6
    3036:	0e 94 2f 04 	call	0x85e	; 0x85e <LCD_gotoXY>
    303a:	64 e0       	ldi	r22, 0x04	; 4
    303c:	e0 fe       	sbrs	r14, 0
    303e:	03 c0       	rjmp	.+6      	; 0x3046 <printPodmenu+0x276>
    3040:	85 ef       	ldi	r24, 0xF5	; 245
    3042:	91 e0       	ldi	r25, 0x01	; 1
    3044:	02 c0       	rjmp	.+4      	; 0x304a <printPodmenu+0x27a>
    3046:	80 ef       	ldi	r24, 0xF0	; 240
    3048:	91 e0       	ldi	r25, 0x01	; 1
    304a:	0e 94 55 06 	call	0xcaa	; 0xcaa <LCD_puts_P>
    304e:	61 e0       	ldi	r22, 0x01	; 1
    3050:	80 e1       	ldi	r24, 0x10	; 16
    3052:	0e 94 2f 04 	call	0x85e	; 0x85e <LCD_gotoXY>
    3056:	64 e0       	ldi	r22, 0x04	; 4
    3058:	e1 fe       	sbrs	r14, 1
    305a:	03 c0       	rjmp	.+6      	; 0x3062 <printPodmenu+0x292>
    305c:	85 ef       	ldi	r24, 0xF5	; 245
    305e:	91 e0       	ldi	r25, 0x01	; 1
    3060:	02 c0       	rjmp	.+4      	; 0x3066 <printPodmenu+0x296>
    3062:	80 ef       	ldi	r24, 0xF0	; 240
    3064:	91 e0       	ldi	r25, 0x01	; 1
    3066:	0e 94 55 06 	call	0xcaa	; 0xcaa <LCD_puts_P>
    306a:	62 e0       	ldi	r22, 0x02	; 2
    306c:	86 e0       	ldi	r24, 0x06	; 6
    306e:	0e 94 2f 04 	call	0x85e	; 0x85e <LCD_gotoXY>
    3072:	64 e0       	ldi	r22, 0x04	; 4
    3074:	e2 fe       	sbrs	r14, 2
    3076:	03 c0       	rjmp	.+6      	; 0x307e <printPodmenu+0x2ae>
    3078:	85 ef       	ldi	r24, 0xF5	; 245
    307a:	91 e0       	ldi	r25, 0x01	; 1
    307c:	02 c0       	rjmp	.+4      	; 0x3082 <printPodmenu+0x2b2>
    307e:	80 ef       	ldi	r24, 0xF0	; 240
    3080:	91 e0       	ldi	r25, 0x01	; 1
    3082:	0e 94 55 06 	call	0xcaa	; 0xcaa <LCD_puts_P>
    3086:	62 e0       	ldi	r22, 0x02	; 2
    3088:	80 e1       	ldi	r24, 0x10	; 16
    308a:	0e 94 2f 04 	call	0x85e	; 0x85e <LCD_gotoXY>
    308e:	64 e0       	ldi	r22, 0x04	; 4
    3090:	e3 fe       	sbrs	r14, 3
    3092:	03 c0       	rjmp	.+6      	; 0x309a <printPodmenu+0x2ca>
    3094:	85 ef       	ldi	r24, 0xF5	; 245
    3096:	91 e0       	ldi	r25, 0x01	; 1
    3098:	02 c0       	rjmp	.+4      	; 0x309e <printPodmenu+0x2ce>
    309a:	80 ef       	ldi	r24, 0xF0	; 240
    309c:	91 e0       	ldi	r25, 0x01	; 1
    309e:	0e 94 55 06 	call	0xcaa	; 0xcaa <LCD_puts_P>
    30a2:	63 e0       	ldi	r22, 0x03	; 3
    30a4:	80 e0       	ldi	r24, 0x00	; 0
    30a6:	0e 94 2f 04 	call	0x85e	; 0x85e <LCD_gotoXY>
    30aa:	0e 94 7e 0d 	call	0x1afc	; 0x1afc <whileKey>
    30ae:	85 30       	cpi	r24, 0x05	; 5
    30b0:	89 f0       	breq	.+34     	; 0x30d4 <printPodmenu+0x304>
    30b2:	38 f4       	brcc	.+14     	; 0x30c2 <printPodmenu+0x2f2>
    30b4:	82 30       	cpi	r24, 0x02	; 2
    30b6:	08 f4       	brcc	.+2      	; 0x30ba <printPodmenu+0x2ea>
    30b8:	bc cf       	rjmp	.-136    	; 0x3032 <printPodmenu+0x262>
    30ba:	84 30       	cpi	r24, 0x04	; 4
    30bc:	08 f4       	brcc	.+2      	; 0x30c0 <printPodmenu+0x2f0>
    30be:	c6 ce       	rjmp	.-628    	; 0x2e4c <printPodmenu+0x7c>
    30c0:	44 c0       	rjmp	.+136    	; 0x314a <printPodmenu+0x37a>
    30c2:	87 30       	cpi	r24, 0x07	; 7
    30c4:	11 f1       	breq	.+68     	; 0x310a <printPodmenu+0x33a>
    30c6:	30 f0       	brcs	.+12     	; 0x30d4 <printPodmenu+0x304>
    30c8:	8f 3f       	cpi	r24, 0xFF	; 255
    30ca:	09 f0       	breq	.+2      	; 0x30ce <printPodmenu+0x2fe>
    30cc:	b2 cf       	rjmp	.-156    	; 0x3032 <printPodmenu+0x262>
    30ce:	0c 94 00 00 	jmp	0	; 0x0 <__vectors>
    30d2:	af cf       	rjmp	.-162    	; 0x3032 <printPodmenu+0x262>
    30d4:	8e 2d       	mov	r24, r14
    30d6:	90 e0       	ldi	r25, 0x00	; 0
    30d8:	0f 2c       	mov	r0, r15
    30da:	02 c0       	rjmp	.+4      	; 0x30e0 <printPodmenu+0x310>
    30dc:	95 95       	asr	r25
    30de:	87 95       	ror	r24
    30e0:	0a 94       	dec	r0
    30e2:	e2 f7       	brpl	.-8      	; 0x30dc <printPodmenu+0x30c>
    30e4:	80 ff       	sbrs	r24, 0
    30e6:	09 c0       	rjmp	.+18     	; 0x30fa <printPodmenu+0x32a>
    30e8:	c6 01       	movw	r24, r12
    30ea:	0f 2c       	mov	r0, r15
    30ec:	01 c0       	rjmp	.+2      	; 0x30f0 <printPodmenu+0x320>
    30ee:	88 0f       	add	r24, r24
    30f0:	0a 94       	dec	r0
    30f2:	ea f7       	brpl	.-6      	; 0x30ee <printPodmenu+0x31e>
    30f4:	80 95       	com	r24
    30f6:	e8 22       	and	r14, r24
    30f8:	9c cf       	rjmp	.-200    	; 0x3032 <printPodmenu+0x262>
    30fa:	c6 01       	movw	r24, r12
    30fc:	0f 2c       	mov	r0, r15
    30fe:	01 c0       	rjmp	.+2      	; 0x3102 <printPodmenu+0x332>
    3100:	88 0f       	add	r24, r24
    3102:	0a 94       	dec	r0
    3104:	ea f7       	brpl	.-6      	; 0x3100 <printPodmenu+0x330>
    3106:	e8 2a       	or	r14, r24
    3108:	94 cf       	rjmp	.-216    	; 0x3032 <printPodmenu+0x262>
    310a:	11 23       	and	r17, r17
    310c:	a1 f0       	breq	.+40     	; 0x3136 <printPodmenu+0x366>
    310e:	02 30       	cpi	r16, 0x02	; 2
    3110:	09 f4       	brne	.+2      	; 0x3114 <printPodmenu+0x344>
    3112:	60 c0       	rjmp	.+192    	; 0x31d4 <printPodmenu+0x404>
    3114:	60 2f       	mov	r22, r16
    3116:	81 2f       	mov	r24, r17
    3118:	0e 94 2f 04 	call	0x85e	; 0x85e <LCD_gotoXY>
    311c:	80 e2       	ldi	r24, 0x20	; 32
    311e:	0e 94 42 04 	call	0x884	; 0x884 <LCD_putchar>
    3122:	0f 5f       	subi	r16, 0xFF	; 255
    3124:	f3 94       	inc	r15
    3126:	60 2f       	mov	r22, r16
    3128:	80 e0       	ldi	r24, 0x00	; 0
    312a:	0e 94 2f 04 	call	0x85e	; 0x85e <LCD_gotoXY>
    312e:	84 e8       	ldi	r24, 0x84	; 132
    3130:	0e 94 42 04 	call	0x884	; 0x884 <LCD_putchar>
    3134:	7d cf       	rjmp	.-262    	; 0x3030 <printPodmenu+0x260>
    3136:	60 2f       	mov	r22, r16
    3138:	81 2f       	mov	r24, r17
    313a:	0e 94 2f 04 	call	0x85e	; 0x85e <LCD_gotoXY>
    313e:	80 e2       	ldi	r24, 0x20	; 32
    3140:	0e 94 42 04 	call	0x884	; 0x884 <LCD_putchar>
    3144:	f3 94       	inc	r15
    3146:	16 5f       	subi	r17, 0xF6	; 246
    3148:	23 c0       	rjmp	.+70     	; 0x3190 <printPodmenu+0x3c0>
    314a:	81 2f       	mov	r24, r17
    314c:	90 e0       	ldi	r25, 0x00	; 0
    314e:	0a 97       	sbiw	r24, 0x0a	; 10
    3150:	a4 f4       	brge	.+40     	; 0x317a <printPodmenu+0x3aa>
    3152:	01 30       	cpi	r16, 0x01	; 1
    3154:	09 f4       	brne	.+2      	; 0x3158 <printPodmenu+0x388>
    3156:	50 c0       	rjmp	.+160    	; 0x31f8 <printPodmenu+0x428>
    3158:	60 2f       	mov	r22, r16
    315a:	81 2f       	mov	r24, r17
    315c:	0e 94 2f 04 	call	0x85e	; 0x85e <LCD_gotoXY>
    3160:	80 e2       	ldi	r24, 0x20	; 32
    3162:	0e 94 42 04 	call	0x884	; 0x884 <LCD_putchar>
    3166:	01 50       	subi	r16, 0x01	; 1
    3168:	fa 94       	dec	r15
    316a:	60 2f       	mov	r22, r16
    316c:	8a e0       	ldi	r24, 0x0A	; 10
    316e:	0e 94 2f 04 	call	0x85e	; 0x85e <LCD_gotoXY>
    3172:	84 e8       	ldi	r24, 0x84	; 132
    3174:	0e 94 42 04 	call	0x884	; 0x884 <LCD_putchar>
    3178:	27 c0       	rjmp	.+78     	; 0x31c8 <printPodmenu+0x3f8>
    317a:	11 23       	and	r17, r17
    317c:	89 f0       	breq	.+34     	; 0x31a0 <printPodmenu+0x3d0>
    317e:	60 2f       	mov	r22, r16
    3180:	81 2f       	mov	r24, r17
    3182:	0e 94 2f 04 	call	0x85e	; 0x85e <LCD_gotoXY>
    3186:	80 e2       	ldi	r24, 0x20	; 32
    3188:	0e 94 42 04 	call	0x884	; 0x884 <LCD_putchar>
    318c:	fa 94       	dec	r15
    318e:	1a 50       	subi	r17, 0x0A	; 10
    3190:	60 2f       	mov	r22, r16
    3192:	81 2f       	mov	r24, r17
    3194:	0e 94 2f 04 	call	0x85e	; 0x85e <LCD_gotoXY>
    3198:	84 e8       	ldi	r24, 0x84	; 132
    319a:	0e 94 42 04 	call	0x884	; 0x884 <LCD_putchar>
    319e:	49 cf       	rjmp	.-366    	; 0x3032 <printPodmenu+0x262>
    31a0:	01 30       	cpi	r16, 0x01	; 1
    31a2:	09 f0       	breq	.+2      	; 0x31a6 <printPodmenu+0x3d6>
    31a4:	46 cf       	rjmp	.-372    	; 0x3032 <printPodmenu+0x262>
    31a6:	61 e0       	ldi	r22, 0x01	; 1
    31a8:	80 e0       	ldi	r24, 0x00	; 0
    31aa:	0e 94 2f 04 	call	0x85e	; 0x85e <LCD_gotoXY>
    31ae:	80 e2       	ldi	r24, 0x20	; 32
    31b0:	0e 94 42 04 	call	0x884	; 0x884 <LCD_putchar>
    31b4:	62 e0       	ldi	r22, 0x02	; 2
    31b6:	8a e0       	ldi	r24, 0x0A	; 10
    31b8:	0e 94 2f 04 	call	0x85e	; 0x85e <LCD_gotoXY>
    31bc:	84 e8       	ldi	r24, 0x84	; 132
    31be:	0e 94 42 04 	call	0x884	; 0x884 <LCD_putchar>
    31c2:	83 e0       	ldi	r24, 0x03	; 3
    31c4:	f8 2e       	mov	r15, r24
    31c6:	02 e0       	ldi	r16, 0x02	; 2
    31c8:	1a e0       	ldi	r17, 0x0A	; 10
    31ca:	33 cf       	rjmp	.-410    	; 0x3032 <printPodmenu+0x262>
    31cc:	85 2d       	mov	r24, r5
    31ce:	0e 94 7d 16 	call	0x2cfa	; 0x2cfa <printRejim>
    31d2:	3c ce       	rjmp	.-904    	; 0x2e4c <printPodmenu+0x7c>
    31d4:	1a 30       	cpi	r17, 0x0A	; 10
    31d6:	09 f0       	breq	.+2      	; 0x31da <printPodmenu+0x40a>
    31d8:	ae cf       	rjmp	.-164    	; 0x3136 <printPodmenu+0x366>
    31da:	62 e0       	ldi	r22, 0x02	; 2
    31dc:	8a e0       	ldi	r24, 0x0A	; 10
    31de:	0e 94 2f 04 	call	0x85e	; 0x85e <LCD_gotoXY>
    31e2:	80 e2       	ldi	r24, 0x20	; 32
    31e4:	0e 94 42 04 	call	0x884	; 0x884 <LCD_putchar>
    31e8:	61 e0       	ldi	r22, 0x01	; 1
    31ea:	80 e0       	ldi	r24, 0x00	; 0
    31ec:	0e 94 2f 04 	call	0x85e	; 0x85e <LCD_gotoXY>
    31f0:	84 e8       	ldi	r24, 0x84	; 132
    31f2:	0e 94 42 04 	call	0x884	; 0x884 <LCD_putchar>
    31f6:	1a cf       	rjmp	.-460    	; 0x302c <printPodmenu+0x25c>
    31f8:	11 11       	cpse	r17, r1
    31fa:	c1 cf       	rjmp	.-126    	; 0x317e <printPodmenu+0x3ae>
    31fc:	d4 cf       	rjmp	.-88     	; 0x31a6 <printPodmenu+0x3d6>

000031fe <dvx3>:
    31fe:	87 e0       	ldi	r24, 0x07	; 7
    3200:	0c 94 e8 16 	jmp	0x2dd0	; 0x2dd0 <printPodmenu>

00003204 <dvx2>:
    3204:	86 e0       	ldi	r24, 0x06	; 6
    3206:	0c 94 e8 16 	jmp	0x2dd0	; 0x2dd0 <printPodmenu>

0000320a <dvx1>:
    320a:	85 e0       	ldi	r24, 0x05	; 5
    320c:	0c 94 e8 16 	jmp	0x2dd0	; 0x2dd0 <printPodmenu>

00003210 <vod4>:
    3210:	84 e0       	ldi	r24, 0x04	; 4
    3212:	0c 94 e8 16 	jmp	0x2dd0	; 0x2dd0 <printPodmenu>

00003216 <vod3>:
    3216:	83 e0       	ldi	r24, 0x03	; 3
    3218:	0c 94 e8 16 	jmp	0x2dd0	; 0x2dd0 <printPodmenu>

0000321c <vod2>:
    321c:	82 e0       	ldi	r24, 0x02	; 2
    321e:	0c 94 e8 16 	jmp	0x2dd0	; 0x2dd0 <printPodmenu>

00003222 <vod1>:
    3222:	81 e0       	ldi	r24, 0x01	; 1
    3224:	0c 94 e8 16 	jmp	0x2dd0	; 0x2dd0 <printPodmenu>

00003228 <main>:
    3228:	cf 93       	push	r28
    322a:	df 93       	push	r29
    322c:	cd b7       	in	r28, 0x3d	; 61
    322e:	de b7       	in	r29, 0x3e	; 62
    3230:	64 97       	sbiw	r28, 0x14	; 20
    3232:	0f b6       	in	r0, 0x3f	; 63
    3234:	f8 94       	cli
    3236:	de bf       	out	0x3e, r29	; 62
    3238:	0f be       	out	0x3f, r0	; 63
    323a:	cd bf       	out	0x3d, r28	; 61
    323c:	0e 94 57 0a 	call	0x14ae	; 0x14ae <bki_init>
    3240:	33 24       	eor	r3, r3
    3242:	33 94       	inc	r3
    3244:	e0 e2       	ldi	r30, 0x20	; 32
    3246:	6e 2e       	mov	r6, r30
    3248:	e1 e0       	ldi	r30, 0x01	; 1
    324a:	7e 2e       	mov	r7, r30
    324c:	ce 01       	movw	r24, r28
    324e:	01 96       	adiw	r24, 0x01	; 1
    3250:	6c 01       	movw	r12, r24
    3252:	fe e5       	ldi	r31, 0x5E	; 94
    3254:	af 2e       	mov	r10, r31
    3256:	f1 e0       	ldi	r31, 0x01	; 1
    3258:	bf 2e       	mov	r11, r31
    325a:	a2 e0       	ldi	r26, 0x02	; 2
    325c:	4a 2e       	mov	r4, r26
    325e:	b9 e0       	ldi	r27, 0x09	; 9
    3260:	5b 2e       	mov	r5, r27
    3262:	18 e8       	ldi	r17, 0x88	; 136
    3264:	81 2e       	mov	r8, r17
    3266:	13 e1       	ldi	r17, 0x13	; 19
    3268:	91 2e       	mov	r9, r17
    326a:	80 91 69 01 	lds	r24, 0x0169	; 0x800169 <sys_state>
    326e:	98 2f       	mov	r25, r24
    3270:	92 70       	andi	r25, 0x02	; 2
    3272:	28 2f       	mov	r18, r24
    3274:	21 70       	andi	r18, 0x01	; 1
    3276:	80 fd       	sbrc	r24, 0
    3278:	06 c0       	rjmp	.+12     	; 0x3286 <main+0x5e>
    327a:	91 11       	cpse	r25, r1
    327c:	04 c0       	rjmp	.+8      	; 0x3286 <main+0x5e>
    327e:	7f e9       	ldi	r23, 0x9F	; 159
    3280:	e7 2e       	mov	r14, r23
    3282:	71 e0       	ldi	r23, 0x01	; 1
    3284:	f7 2e       	mov	r15, r23
    3286:	30 91 68 01 	lds	r19, 0x0168	; 0x800168 <ind_state>
    328a:	31 11       	cpse	r19, r1
    328c:	03 c0       	rjmp	.+6      	; 0x3294 <main+0x6c>
    328e:	30 92 68 01 	sts	0x0168, r3	; 0x800168 <ind_state>
    3292:	08 c0       	rjmp	.+16     	; 0x32a4 <main+0x7c>
    3294:	10 92 68 01 	sts	0x0168, r1	; 0x800168 <ind_state>
    3298:	22 23       	and	r18, r18
    329a:	21 f0       	breq	.+8      	; 0x32a4 <main+0x7c>
    329c:	68 e9       	ldi	r22, 0x98	; 152
    329e:	e6 2e       	mov	r14, r22
    32a0:	61 e0       	ldi	r22, 0x01	; 1
    32a2:	f6 2e       	mov	r15, r22
    32a4:	99 23       	and	r25, r25
    32a6:	41 f0       	breq	.+16     	; 0x32b8 <main+0x90>
    32a8:	90 91 68 01 	lds	r25, 0x0168	; 0x800168 <ind_state>
    32ac:	91 30       	cpi	r25, 0x01	; 1
    32ae:	21 f4       	brne	.+8      	; 0x32b8 <main+0x90>
    32b0:	5a e8       	ldi	r21, 0x8A	; 138
    32b2:	e5 2e       	mov	r14, r21
    32b4:	51 e0       	ldi	r21, 0x01	; 1
    32b6:	f5 2e       	mov	r15, r21
    32b8:	83 ff       	sbrs	r24, 3
    32ba:	04 c0       	rjmp	.+8      	; 0x32c4 <main+0x9c>
    32bc:	4c ec       	ldi	r20, 0xCC	; 204
    32be:	e4 2e       	mov	r14, r20
    32c0:	40 e0       	ldi	r20, 0x00	; 0
    32c2:	f4 2e       	mov	r15, r20
    32c4:	60 e0       	ldi	r22, 0x00	; 0
    32c6:	80 e0       	ldi	r24, 0x00	; 0
    32c8:	0e 94 2f 04 	call	0x85e	; 0x85e <LCD_gotoXY>
    32cc:	64 e1       	ldi	r22, 0x14	; 20
    32ce:	c7 01       	movw	r24, r14
    32d0:	0e 94 55 06 	call	0xcaa	; 0xcaa <LCD_puts_P>
    32d4:	8e e0       	ldi	r24, 0x0E	; 14
    32d6:	95 e0       	ldi	r25, 0x05	; 5
    32d8:	0e 94 d7 02 	call	0x5ae	; 0x5ae <rtc_get>
    32dc:	80 91 13 05 	lds	r24, 0x0513	; 0x800513 <rtc+0x5>
    32e0:	1f 92       	push	r1
    32e2:	8f 93       	push	r24
    32e4:	80 91 12 05 	lds	r24, 0x0512	; 0x800512 <rtc+0x4>
    32e8:	1f 92       	push	r1
    32ea:	8f 93       	push	r24
    32ec:	80 91 11 05 	lds	r24, 0x0511	; 0x800511 <rtc+0x3>
    32f0:	1f 92       	push	r1
    32f2:	8f 93       	push	r24
    32f4:	80 91 0e 05 	lds	r24, 0x050E	; 0x80050e <rtc>
    32f8:	1f 92       	push	r1
    32fa:	8f 93       	push	r24
    32fc:	80 91 0f 05 	lds	r24, 0x050F	; 0x80050f <rtc+0x1>
    3300:	1f 92       	push	r1
    3302:	8f 93       	push	r24
    3304:	80 91 10 05 	lds	r24, 0x0510	; 0x800510 <rtc+0x2>
    3308:	1f 92       	push	r1
    330a:	8f 93       	push	r24
    330c:	7f 92       	push	r7
    330e:	6f 92       	push	r6
    3310:	df 92       	push	r13
    3312:	cf 92       	push	r12
    3314:	0e 94 8c 1e 	call	0x3d18	; 0x3d18 <sprintf>
    3318:	80 91 0e 05 	lds	r24, 0x050E	; 0x80050e <rtc>
    331c:	90 91 0f 05 	lds	r25, 0x050F	; 0x80050f <rtc+0x1>
    3320:	98 27       	eor	r25, r24
    3322:	89 27       	eor	r24, r25
    3324:	98 27       	eor	r25, r24
    3326:	90 93 09 05 	sts	0x0509, r25	; 0x800509 <modbusRegisters+0xb>
    332a:	80 93 08 05 	sts	0x0508, r24	; 0x800508 <modbusRegisters+0xa>
    332e:	80 91 10 05 	lds	r24, 0x0510	; 0x800510 <rtc+0x2>
    3332:	90 91 11 05 	lds	r25, 0x0511	; 0x800511 <rtc+0x3>
    3336:	98 27       	eor	r25, r24
    3338:	89 27       	eor	r24, r25
    333a:	98 27       	eor	r25, r24
    333c:	90 93 0b 05 	sts	0x050B, r25	; 0x80050b <modbusRegisters+0xd>
    3340:	80 93 0a 05 	sts	0x050A, r24	; 0x80050a <modbusRegisters+0xc>
    3344:	80 91 12 05 	lds	r24, 0x0512	; 0x800512 <rtc+0x4>
    3348:	90 91 13 05 	lds	r25, 0x0513	; 0x800513 <rtc+0x5>
    334c:	98 27       	eor	r25, r24
    334e:	89 27       	eor	r24, r25
    3350:	98 27       	eor	r25, r24
    3352:	90 93 0d 05 	sts	0x050D, r25	; 0x80050d <modbusRegisters+0xf>
    3356:	80 93 0c 05 	sts	0x050C, r24	; 0x80050c <modbusRegisters+0xe>
    335a:	63 e0       	ldi	r22, 0x03	; 3
    335c:	80 e0       	ldi	r24, 0x00	; 0
    335e:	0e 94 2f 04 	call	0x85e	; 0x85e <LCD_gotoXY>
    3362:	0f b6       	in	r0, 0x3f	; 63
    3364:	f8 94       	cli
    3366:	de bf       	out	0x3e, r29	; 62
    3368:	0f be       	out	0x3f, r0	; 63
    336a:	cd bf       	out	0x3d, r28	; 61
    336c:	80 91 67 01 	lds	r24, 0x0167	; 0x800167 <ERROR>
    3370:	88 23       	and	r24, r24
    3372:	a1 f0       	breq	.+40     	; 0x339c <main+0x174>
    3374:	80 91 69 01 	lds	r24, 0x0169	; 0x800169 <sys_state>
    3378:	88 60       	ori	r24, 0x08	; 8
    337a:	80 93 69 01 	sts	0x0169, r24	; 0x800169 <sys_state>
    337e:	64 e1       	ldi	r22, 0x14	; 20
    3380:	85 ec       	ldi	r24, 0xC5	; 197
    3382:	90 e0       	ldi	r25, 0x00	; 0
    3384:	0e 94 55 06 	call	0xcaa	; 0xcaa <LCD_puts_P>
    3388:	63 e0       	ldi	r22, 0x03	; 3
    338a:	87 e0       	ldi	r24, 0x07	; 7
    338c:	0e 94 2f 04 	call	0x85e	; 0x85e <LCD_gotoXY>
    3390:	80 91 67 01 	lds	r24, 0x0167	; 0x800167 <ERROR>
    3394:	80 5d       	subi	r24, 0xD0	; 208
    3396:	0e 94 42 04 	call	0x884	; 0x884 <LCD_putchar>
    339a:	04 c0       	rjmp	.+8      	; 0x33a4 <main+0x17c>
    339c:	64 e1       	ldi	r22, 0x14	; 20
    339e:	c6 01       	movw	r24, r12
    33a0:	0e 94 d0 04 	call	0x9a0	; 0x9a0 <LCD_puts>
    33a4:	80 91 69 01 	lds	r24, 0x0169	; 0x800169 <sys_state>
    33a8:	1f 92       	push	r1
    33aa:	8f 93       	push	r24
    33ac:	bf 92       	push	r11
    33ae:	af 92       	push	r10
    33b0:	df 92       	push	r13
    33b2:	cf 92       	push	r12
    33b4:	0e 94 8c 1e 	call	0x3d18	; 0x3d18 <sprintf>
    33b8:	61 e0       	ldi	r22, 0x01	; 1
    33ba:	80 e0       	ldi	r24, 0x00	; 0
    33bc:	0e 94 2f 04 	call	0x85e	; 0x85e <LCD_gotoXY>
    33c0:	64 e1       	ldi	r22, 0x14	; 20
    33c2:	c6 01       	movw	r24, r12
    33c4:	0e 94 d0 04 	call	0x9a0	; 0x9a0 <LCD_puts>
    33c8:	0f 90       	pop	r0
    33ca:	0f 90       	pop	r0
    33cc:	0f 90       	pop	r0
    33ce:	0f 90       	pop	r0
    33d0:	0f 90       	pop	r0
    33d2:	0f 90       	pop	r0
    33d4:	80 91 66 01 	lds	r24, 0x0166	; 0x800166 <TWI_ERR>
    33d8:	81 11       	cpse	r24, r1
    33da:	40 92 67 01 	sts	0x0167, r4	; 0x800167 <ERROR>
    33de:	80 91 6a 01 	lds	r24, 0x016A	; 0x80016a <MODB_ERR>
    33e2:	88 23       	and	r24, r24
    33e4:	19 f0       	breq	.+6      	; 0x33ec <main+0x1c4>
    33e6:	85 e0       	ldi	r24, 0x05	; 5
    33e8:	80 93 67 01 	sts	0x0167, r24	; 0x800167 <ERROR>
    33ec:	80 91 63 01 	lds	r24, 0x0163	; 0x800163 <CAN_ERR>
    33f0:	88 23       	and	r24, r24
    33f2:	19 f0       	breq	.+6      	; 0x33fa <main+0x1d2>
    33f4:	83 e0       	ldi	r24, 0x03	; 3
    33f6:	80 93 67 01 	sts	0x0167, r24	; 0x800167 <ERROR>
    33fa:	10 92 69 01 	sts	0x0169, r1	; 0x800169 <sys_state>
    33fe:	10 92 07 05 	sts	0x0507, r1	; 0x800507 <modbusRegisters+0x9>
    3402:	10 92 06 05 	sts	0x0506, r1	; 0x800506 <modbusRegisters+0x8>
    3406:	10 92 05 05 	sts	0x0505, r1	; 0x800505 <modbusRegisters+0x7>
    340a:	10 92 04 05 	sts	0x0504, r1	; 0x800504 <modbusRegisters+0x6>
    340e:	10 92 03 05 	sts	0x0503, r1	; 0x800503 <modbusRegisters+0x5>
    3412:	10 92 02 05 	sts	0x0502, r1	; 0x800502 <modbusRegisters+0x4>
    3416:	01 e0       	ldi	r16, 0x01	; 1
    3418:	10 e0       	ldi	r17, 0x00	; 0
    341a:	c8 01       	movw	r24, r16
    341c:	87 5f       	subi	r24, 0xF7	; 247
    341e:	9f 4f       	sbci	r25, 0xFF	; 255
    3420:	0e 94 4f 21 	call	0x429e	; 0x429e <eeprom_read_byte>
    3424:	80 13       	cpse	r24, r16
    3426:	53 c0       	rjmp	.+166    	; 0x34ce <main+0x2a6>
    3428:	20 91 02 05 	lds	r18, 0x0502	; 0x800502 <modbusRegisters+0x4>
    342c:	30 91 03 05 	lds	r19, 0x0503	; 0x800503 <modbusRegisters+0x5>
    3430:	2f 5f       	subi	r18, 0xFF	; 255
    3432:	3f 4f       	sbci	r19, 0xFF	; 255
    3434:	30 93 03 05 	sts	0x0503, r19	; 0x800503 <modbusRegisters+0x5>
    3438:	20 93 02 05 	sts	0x0502, r18	; 0x800502 <modbusRegisters+0x4>
    343c:	50 9e       	mul	r5, r16
    343e:	f0 01       	movw	r30, r0
    3440:	51 9e       	mul	r5, r17
    3442:	f0 0d       	add	r31, r0
    3444:	11 24       	eor	r1, r1
    3446:	e1 58       	subi	r30, 0x81	; 129
    3448:	fe 4f       	sbci	r31, 0xFE	; 254
    344a:	90 85       	ldd	r25, Z+8	; 0x08
    344c:	95 ff       	sbrs	r25, 5
    344e:	05 c0       	rjmp	.+10     	; 0x345a <main+0x232>
    3450:	90 91 69 01 	lds	r25, 0x0169	; 0x800169 <sys_state>
    3454:	90 62       	ori	r25, 0x20	; 32
    3456:	90 93 69 01 	sts	0x0169, r25	; 0x800169 <sys_state>
    345a:	50 9e       	mul	r5, r16
    345c:	f0 01       	movw	r30, r0
    345e:	51 9e       	mul	r5, r17
    3460:	f0 0d       	add	r31, r0
    3462:	11 24       	eor	r1, r1
    3464:	e1 58       	subi	r30, 0x81	; 129
    3466:	fe 4f       	sbci	r31, 0xFE	; 254
    3468:	90 85       	ldd	r25, Z+8	; 0x08
    346a:	90 ff       	sbrs	r25, 0
    346c:	18 c0       	rjmp	.+48     	; 0x349e <main+0x276>
    346e:	20 91 06 05 	lds	r18, 0x0506	; 0x800506 <modbusRegisters+0x8>
    3472:	30 91 07 05 	lds	r19, 0x0507	; 0x800507 <modbusRegisters+0x9>
    3476:	2f 5f       	subi	r18, 0xFF	; 255
    3478:	3f 4f       	sbci	r19, 0xFF	; 255
    347a:	30 93 07 05 	sts	0x0507, r19	; 0x800507 <modbusRegisters+0x9>
    347e:	20 93 06 05 	sts	0x0506, r18	; 0x800506 <modbusRegisters+0x8>
    3482:	20 90 69 01 	lds	r2, 0x0169	; 0x800169 <sys_state>
    3486:	92 2d       	mov	r25, r2
    3488:	91 60       	ori	r25, 0x01	; 1
    348a:	90 93 69 01 	sts	0x0169, r25	; 0x800169 <sys_state>
    348e:	0e 94 28 0d 	call	0x1a50	; 0x1a50 <scanID>
    3492:	88 23       	and	r24, r24
    3494:	21 f0       	breq	.+8      	; 0x349e <main+0x276>
    3496:	82 2d       	mov	r24, r2
    3498:	81 64       	ori	r24, 0x41	; 65
    349a:	80 93 69 01 	sts	0x0169, r24	; 0x800169 <sys_state>
    349e:	50 9e       	mul	r5, r16
    34a0:	f0 01       	movw	r30, r0
    34a2:	51 9e       	mul	r5, r17
    34a4:	f0 0d       	add	r31, r0
    34a6:	11 24       	eor	r1, r1
    34a8:	e1 58       	subi	r30, 0x81	; 129
    34aa:	fe 4f       	sbci	r31, 0xFE	; 254
    34ac:	80 85       	ldd	r24, Z+8	; 0x08
    34ae:	81 ff       	sbrs	r24, 1
    34b0:	0e c0       	rjmp	.+28     	; 0x34ce <main+0x2a6>
    34b2:	80 91 04 05 	lds	r24, 0x0504	; 0x800504 <modbusRegisters+0x6>
    34b6:	90 91 05 05 	lds	r25, 0x0505	; 0x800505 <modbusRegisters+0x7>
    34ba:	01 96       	adiw	r24, 0x01	; 1
    34bc:	90 93 05 05 	sts	0x0505, r25	; 0x800505 <modbusRegisters+0x7>
    34c0:	80 93 04 05 	sts	0x0504, r24	; 0x800504 <modbusRegisters+0x6>
    34c4:	80 91 69 01 	lds	r24, 0x0169	; 0x800169 <sys_state>
    34c8:	82 60       	ori	r24, 0x02	; 2
    34ca:	80 93 69 01 	sts	0x0169, r24	; 0x800169 <sys_state>
    34ce:	80 91 69 01 	lds	r24, 0x0169	; 0x800169 <sys_state>
    34d2:	85 ff       	sbrs	r24, 5
    34d4:	02 c0       	rjmp	.+4      	; 0x34da <main+0x2b2>
    34d6:	da 9a       	sbi	0x1b, 2	; 27
    34d8:	01 c0       	rjmp	.+2      	; 0x34dc <main+0x2b4>
    34da:	da 98       	cbi	0x1b, 2	; 27
    34dc:	80 91 69 01 	lds	r24, 0x0169	; 0x800169 <sys_state>
    34e0:	80 ff       	sbrs	r24, 0
    34e2:	02 c0       	rjmp	.+4      	; 0x34e8 <main+0x2c0>
    34e4:	db 9a       	sbi	0x1b, 3	; 27
    34e6:	01 c0       	rjmp	.+2      	; 0x34ea <main+0x2c2>
    34e8:	db 98       	cbi	0x1b, 3	; 27
    34ea:	80 91 69 01 	lds	r24, 0x0169	; 0x800169 <sys_state>
    34ee:	86 ff       	sbrs	r24, 6
    34f0:	02 c0       	rjmp	.+4      	; 0x34f6 <main+0x2ce>
    34f2:	d9 9a       	sbi	0x1b, 1	; 27
    34f4:	01 c0       	rjmp	.+2      	; 0x34f8 <main+0x2d0>
    34f6:	d9 98       	cbi	0x1b, 1	; 27
    34f8:	80 91 69 01 	lds	r24, 0x0169	; 0x800169 <sys_state>
    34fc:	81 fd       	sbrc	r24, 1
    34fe:	04 c0       	rjmp	.+8      	; 0x3508 <main+0x2e0>
    3500:	80 91 67 01 	lds	r24, 0x0167	; 0x800167 <ERROR>
    3504:	88 23       	and	r24, r24
    3506:	11 f0       	breq	.+4      	; 0x350c <main+0x2e4>
    3508:	d8 98       	cbi	0x1b, 0	; 27
    350a:	01 c0       	rjmp	.+2      	; 0x350e <main+0x2e6>
    350c:	d8 9a       	sbi	0x1b, 0	; 27
    350e:	0f 5f       	subi	r16, 0xFF	; 255
    3510:	1f 4f       	sbci	r17, 0xFF	; 255
    3512:	03 36       	cpi	r16, 0x63	; 99
    3514:	11 05       	cpc	r17, r1
    3516:	09 f0       	breq	.+2      	; 0x351a <main+0x2f2>
    3518:	80 cf       	rjmp	.-256    	; 0x341a <main+0x1f2>
    351a:	80 91 67 01 	lds	r24, 0x0167	; 0x800167 <ERROR>
    351e:	90 e0       	ldi	r25, 0x00	; 0
    3520:	98 2f       	mov	r25, r24
    3522:	88 27       	eor	r24, r24
    3524:	20 91 69 01 	lds	r18, 0x0169	; 0x800169 <sys_state>
    3528:	82 2b       	or	r24, r18
    352a:	90 93 ff 04 	sts	0x04FF, r25	; 0x8004ff <modbusRegisters+0x1>
    352e:	80 93 fe 04 	sts	0x04FE, r24	; 0x8004fe <modbusRegisters>
    3532:	89 b3       	in	r24, 0x19	; 25
    3534:	8f 70       	andi	r24, 0x0F	; 15
    3536:	90 e0       	ldi	r25, 0x00	; 0
    3538:	90 93 01 05 	sts	0x0501, r25	; 0x800501 <modbusRegisters+0x3>
    353c:	80 93 00 05 	sts	0x0500, r24	; 0x800500 <modbusRegisters+0x2>
    3540:	80 91 7a 01 	lds	r24, 0x017A	; 0x80017a <pingTime>
    3544:	90 91 7b 01 	lds	r25, 0x017B	; 0x80017b <pingTime+0x1>
    3548:	89 2b       	or	r24, r25
    354a:	69 f4       	brne	.+26     	; 0x3566 <main+0x33e>
    354c:	0e 94 b7 0a 	call	0x156e	; 0x156e <ping>
    3550:	90 92 7b 01 	sts	0x017B, r9	; 0x80017b <pingTime+0x1>
    3554:	80 92 7a 01 	sts	0x017A, r8	; 0x80017a <pingTime>
    3558:	60 e0       	ldi	r22, 0x00	; 0
    355a:	83 e1       	ldi	r24, 0x13	; 19
    355c:	0e 94 2f 04 	call	0x85e	; 0x85e <LCD_gotoXY>
    3560:	8a e2       	ldi	r24, 0x2A	; 42
    3562:	0e 94 42 04 	call	0x884	; 0x884 <LCD_putchar>
    3566:	08 ee       	ldi	r16, 0xE8	; 232
    3568:	13 e0       	ldi	r17, 0x03	; 3
    356a:	80 91 70 01 	lds	r24, 0x0170	; 0x800170 <rx_counter>
    356e:	81 11       	cpse	r24, r1
    3570:	19 c0       	rjmp	.+50     	; 0x35a4 <main+0x37c>
    3572:	8f e9       	ldi	r24, 0x9F	; 159
    3574:	9f e0       	ldi	r25, 0x0F	; 15
    3576:	01 97       	sbiw	r24, 0x01	; 1
    3578:	f1 f7       	brne	.-4      	; 0x3576 <main+0x34e>
    357a:	00 c0       	rjmp	.+0      	; 0x357c <main+0x354>
    357c:	00 00       	nop
    357e:	0e 94 3f 0d 	call	0x1a7e	; 0x1a7e <scanKBD>
    3582:	82 30       	cpi	r24, 0x02	; 2
    3584:	61 f4       	brne	.+24     	; 0x359e <main+0x376>
    3586:	0e 94 3f 0d 	call	0x1a7e	; 0x1a7e <scanKBD>
    358a:	8f 3f       	cpi	r24, 0xFF	; 255
    358c:	e1 f7       	brne	.-8      	; 0x3586 <main+0x35e>
    358e:	80 e6       	ldi	r24, 0x60	; 96
    3590:	90 e0       	ldi	r25, 0x00	; 0
    3592:	0e 94 bf 14 	call	0x297e	; 0x297e <naviMenu>
    3596:	0e 94 21 04 	call	0x842	; 0x842 <LCD_clr>
    359a:	10 92 69 01 	sts	0x0169, r1	; 0x800169 <sys_state>
    359e:	01 50       	subi	r16, 0x01	; 1
    35a0:	11 09       	sbc	r17, r1
    35a2:	19 f7       	brne	.-58     	; 0x356a <main+0x342>
    35a4:	80 91 70 01 	lds	r24, 0x0170	; 0x800170 <rx_counter>
    35a8:	88 23       	and	r24, r24
    35aa:	09 f4       	brne	.+2      	; 0x35ae <main+0x386>
    35ac:	5e ce       	rjmp	.-836    	; 0x326a <main+0x42>
    35ae:	0e 94 ed 1c 	call	0x39da	; 0x39da <getModbMsg>
    35b2:	18 16       	cp	r1, r24
    35b4:	24 f0       	brlt	.+8      	; 0x35be <main+0x396>
    35b6:	85 e0       	ldi	r24, 0x05	; 5
    35b8:	80 93 67 01 	sts	0x0167, r24	; 0x800167 <ERROR>
    35bc:	56 ce       	rjmp	.-852    	; 0x326a <main+0x42>
    35be:	dd 98       	cbi	0x1b, 5	; 27
    35c0:	80 91 67 01 	lds	r24, 0x0167	; 0x800167 <ERROR>
    35c4:	85 30       	cpi	r24, 0x05	; 5
    35c6:	11 f4       	brne	.+4      	; 0x35cc <main+0x3a4>
    35c8:	10 92 67 01 	sts	0x0167, r1	; 0x800167 <ERROR>
    35cc:	10 91 c0 05 	lds	r17, 0x05C0	; 0x8005c0 <modb_message>
    35d0:	86 e0       	ldi	r24, 0x06	; 6
    35d2:	90 e0       	ldi	r25, 0x00	; 0
    35d4:	0e 94 4f 21 	call	0x429e	; 0x429e <eeprom_read_byte>
    35d8:	18 13       	cpse	r17, r24
    35da:	41 c0       	rjmp	.+130    	; 0x365e <main+0x436>
    35dc:	e0 91 c2 05 	lds	r30, 0x05C2	; 0x8005c2 <modb_message+0x2>
    35e0:	f0 91 c3 05 	lds	r31, 0x05C3	; 0x8005c3 <modb_message+0x3>
    35e4:	fe 27       	eor	r31, r30
    35e6:	ef 27       	eor	r30, r31
    35e8:	fe 27       	eor	r31, r30
    35ea:	80 91 c4 05 	lds	r24, 0x05C4	; 0x8005c4 <modb_message+0x4>
    35ee:	90 91 c5 05 	lds	r25, 0x05C5	; 0x8005c5 <modb_message+0x5>
    35f2:	98 27       	eor	r25, r24
    35f4:	89 27       	eor	r24, r25
    35f6:	98 27       	eor	r25, r24
    35f8:	af 01       	movw	r20, r30
    35fa:	48 0f       	add	r20, r24
    35fc:	59 1f       	adc	r21, r25
    35fe:	20 91 c1 05 	lds	r18, 0x05C1	; 0x8005c1 <modb_message+0x1>
    3602:	49 30       	cpi	r20, 0x09	; 9
    3604:	51 05       	cpc	r21, r1
    3606:	38 f0       	brcs	.+14     	; 0x3616 <main+0x3ee>
    3608:	20 68       	ori	r18, 0x80	; 128
    360a:	20 93 c1 05 	sts	0x05C1, r18	; 0x8005c1 <modb_message+0x1>
    360e:	40 92 c2 05 	sts	0x05C2, r4	; 0x8005c2 <modb_message+0x2>
    3612:	83 e0       	ldi	r24, 0x03	; 3
    3614:	26 c0       	rjmp	.+76     	; 0x3662 <main+0x43a>
    3616:	23 30       	cpi	r18, 0x03	; 3
    3618:	e9 f4       	brne	.+58     	; 0x3654 <main+0x42c>
    361a:	ee 0f       	add	r30, r30
    361c:	ff 1f       	adc	r31, r31
    361e:	e2 50       	subi	r30, 0x02	; 2
    3620:	fb 4f       	sbci	r31, 0xFB	; 251
    3622:	a0 ec       	ldi	r26, 0xC0	; 192
    3624:	b5 e0       	ldi	r27, 0x05	; 5
    3626:	20 e0       	ldi	r18, 0x00	; 0
    3628:	30 e0       	ldi	r19, 0x00	; 0
    362a:	12 96       	adiw	r26, 0x02	; 2
    362c:	82 17       	cp	r24, r18
    362e:	93 07       	cpc	r25, r19
    3630:	61 f0       	breq	.+24     	; 0x364a <main+0x422>
    3632:	40 81       	ld	r20, Z
    3634:	51 81       	ldd	r21, Z+1	; 0x01
    3636:	32 96       	adiw	r30, 0x02	; 2
    3638:	11 96       	adiw	r26, 0x01	; 1
    363a:	5c 93       	st	X, r21
    363c:	11 97       	sbiw	r26, 0x01	; 1
    363e:	12 96       	adiw	r26, 0x02	; 2
    3640:	4c 93       	st	X, r20
    3642:	12 97       	sbiw	r26, 0x02	; 2
    3644:	2f 5f       	subi	r18, 0xFF	; 255
    3646:	3f 4f       	sbci	r19, 0xFF	; 255
    3648:	f0 cf       	rjmp	.-32     	; 0x362a <main+0x402>
    364a:	88 0f       	add	r24, r24
    364c:	80 93 c2 05 	sts	0x05C2, r24	; 0x8005c2 <modb_message+0x2>
    3650:	8d 5f       	subi	r24, 0xFD	; 253
    3652:	07 c0       	rjmp	.+14     	; 0x3662 <main+0x43a>
    3654:	20 68       	ori	r18, 0x80	; 128
    3656:	20 93 c1 05 	sts	0x05C1, r18	; 0x8005c1 <modb_message+0x1>
    365a:	30 92 c2 05 	sts	0x05C2, r3	; 0x8005c2 <modb_message+0x2>
    365e:	dd 9a       	sbi	0x1b, 5	; 27
    3660:	04 ce       	rjmp	.-1016   	; 0x326a <main+0x42>
    3662:	0e 94 4a 1c 	call	0x3894	; 0x3894 <putModbMsg>
    3666:	fb cf       	rjmp	.-10     	; 0x365e <main+0x436>

00003668 <__vector_7>:
    3668:	1f 92       	push	r1
    366a:	0f 92       	push	r0
    366c:	0f b6       	in	r0, 0x3f	; 63
    366e:	0f 92       	push	r0
    3670:	11 24       	eor	r1, r1
    3672:	8f 93       	push	r24
    3674:	9f 93       	push	r25
    3676:	af 93       	push	r26
    3678:	bf 93       	push	r27
    367a:	80 91 fa 04 	lds	r24, 0x04FA	; 0x8004fa <CAN_timeout>
    367e:	90 91 fb 04 	lds	r25, 0x04FB	; 0x8004fb <CAN_timeout+0x1>
    3682:	89 2b       	or	r24, r25
    3684:	49 f0       	breq	.+18     	; 0x3698 <__vector_7+0x30>
    3686:	80 91 fa 04 	lds	r24, 0x04FA	; 0x8004fa <CAN_timeout>
    368a:	90 91 fb 04 	lds	r25, 0x04FB	; 0x8004fb <CAN_timeout+0x1>
    368e:	01 97       	sbiw	r24, 0x01	; 1
    3690:	90 93 fb 04 	sts	0x04FB, r25	; 0x8004fb <CAN_timeout+0x1>
    3694:	80 93 fa 04 	sts	0x04FA, r24	; 0x8004fa <CAN_timeout>
    3698:	80 91 fc 04 	lds	r24, 0x04FC	; 0x8004fc <SPI_timeout>
    369c:	90 91 fd 04 	lds	r25, 0x04FD	; 0x8004fd <SPI_timeout+0x1>
    36a0:	89 2b       	or	r24, r25
    36a2:	49 f0       	breq	.+18     	; 0x36b6 <__vector_7+0x4e>
    36a4:	80 91 fc 04 	lds	r24, 0x04FC	; 0x8004fc <SPI_timeout>
    36a8:	90 91 fd 04 	lds	r25, 0x04FD	; 0x8004fd <SPI_timeout+0x1>
    36ac:	01 97       	sbiw	r24, 0x01	; 1
    36ae:	90 93 fd 04 	sts	0x04FD, r25	; 0x8004fd <SPI_timeout+0x1>
    36b2:	80 93 fc 04 	sts	0x04FC, r24	; 0x8004fc <SPI_timeout>
    36b6:	80 91 7d 01 	lds	r24, 0x017D	; 0x80017d <menuExit>
    36ba:	90 91 7e 01 	lds	r25, 0x017E	; 0x80017e <menuExit+0x1>
    36be:	89 2b       	or	r24, r25
    36c0:	49 f0       	breq	.+18     	; 0x36d4 <__vector_7+0x6c>
    36c2:	80 91 7d 01 	lds	r24, 0x017D	; 0x80017d <menuExit>
    36c6:	90 91 7e 01 	lds	r25, 0x017E	; 0x80017e <menuExit+0x1>
    36ca:	01 97       	sbiw	r24, 0x01	; 1
    36cc:	90 93 7e 01 	sts	0x017E, r25	; 0x80017e <menuExit+0x1>
    36d0:	80 93 7d 01 	sts	0x017D, r24	; 0x80017d <menuExit>
    36d4:	80 91 7a 01 	lds	r24, 0x017A	; 0x80017a <pingTime>
    36d8:	90 91 7b 01 	lds	r25, 0x017B	; 0x80017b <pingTime+0x1>
    36dc:	89 2b       	or	r24, r25
    36de:	49 f0       	breq	.+18     	; 0x36f2 <__vector_7+0x8a>
    36e0:	80 91 7a 01 	lds	r24, 0x017A	; 0x80017a <pingTime>
    36e4:	90 91 7b 01 	lds	r25, 0x017B	; 0x80017b <pingTime+0x1>
    36e8:	01 97       	sbiw	r24, 0x01	; 1
    36ea:	90 93 7b 01 	sts	0x017B, r25	; 0x80017b <pingTime+0x1>
    36ee:	80 93 7a 01 	sts	0x017A, r24	; 0x80017a <pingTime>
    36f2:	80 91 72 01 	lds	r24, 0x0172	; 0x800172 <MODB_timeout>
    36f6:	90 91 73 01 	lds	r25, 0x0173	; 0x800173 <MODB_timeout+0x1>
    36fa:	a0 91 74 01 	lds	r26, 0x0174	; 0x800174 <MODB_timeout+0x2>
    36fe:	b0 91 75 01 	lds	r27, 0x0175	; 0x800175 <MODB_timeout+0x3>
    3702:	89 2b       	or	r24, r25
    3704:	8a 2b       	or	r24, r26
    3706:	8b 2b       	or	r24, r27
    3708:	99 f0       	breq	.+38     	; 0x3730 <__vector_7+0xc8>
    370a:	80 91 72 01 	lds	r24, 0x0172	; 0x800172 <MODB_timeout>
    370e:	90 91 73 01 	lds	r25, 0x0173	; 0x800173 <MODB_timeout+0x1>
    3712:	a0 91 74 01 	lds	r26, 0x0174	; 0x800174 <MODB_timeout+0x2>
    3716:	b0 91 75 01 	lds	r27, 0x0175	; 0x800175 <MODB_timeout+0x3>
    371a:	01 97       	sbiw	r24, 0x01	; 1
    371c:	a1 09       	sbc	r26, r1
    371e:	b1 09       	sbc	r27, r1
    3720:	80 93 72 01 	sts	0x0172, r24	; 0x800172 <MODB_timeout>
    3724:	90 93 73 01 	sts	0x0173, r25	; 0x800173 <MODB_timeout+0x1>
    3728:	a0 93 74 01 	sts	0x0174, r26	; 0x800174 <MODB_timeout+0x2>
    372c:	b0 93 75 01 	sts	0x0175, r27	; 0x800175 <MODB_timeout+0x3>
    3730:	bf 91       	pop	r27
    3732:	af 91       	pop	r26
    3734:	9f 91       	pop	r25
    3736:	8f 91       	pop	r24
    3738:	0f 90       	pop	r0
    373a:	0f be       	out	0x3f, r0	; 63
    373c:	0f 90       	pop	r0
    373e:	1f 90       	pop	r1
    3740:	18 95       	reti

00003742 <__vector_13>:
    3742:	1f 92       	push	r1
    3744:	0f 92       	push	r0
    3746:	0f b6       	in	r0, 0x3f	; 63
    3748:	0f 92       	push	r0
    374a:	11 24       	eor	r1, r1
    374c:	8f 93       	push	r24
    374e:	9f 93       	push	r25
    3750:	ef 93       	push	r30
    3752:	ff 93       	push	r31
    3754:	8b b1       	in	r24, 0x0b	; 11
    3756:	9c b1       	in	r25, 0x0c	; 12
    3758:	8c 71       	andi	r24, 0x1C	; 28
    375a:	11 f0       	breq	.+4      	; 0x3760 <__vector_13+0x1e>
    375c:	83 e0       	ldi	r24, 0x03	; 3
    375e:	19 c0       	rjmp	.+50     	; 0x3792 <__vector_13+0x50>
    3760:	e0 91 71 01 	lds	r30, 0x0171	; 0x800171 <wr_index>
    3764:	f0 e0       	ldi	r31, 0x00	; 0
    3766:	e8 56       	subi	r30, 0x68	; 104
    3768:	fa 4f       	sbci	r31, 0xFA	; 250
    376a:	90 83       	st	Z, r25
    376c:	80 91 71 01 	lds	r24, 0x0171	; 0x800171 <wr_index>
    3770:	8f 5f       	subi	r24, 0xFF	; 255
    3772:	80 93 71 01 	sts	0x0171, r24	; 0x800171 <wr_index>
    3776:	88 32       	cpi	r24, 0x28	; 40
    3778:	11 f4       	brne	.+4      	; 0x377e <__vector_13+0x3c>
    377a:	10 92 71 01 	sts	0x0171, r1	; 0x800171 <wr_index>
    377e:	80 91 70 01 	lds	r24, 0x0170	; 0x800170 <rx_counter>
    3782:	8f 5f       	subi	r24, 0xFF	; 255
    3784:	80 93 70 01 	sts	0x0170, r24	; 0x800170 <rx_counter>
    3788:	88 32       	cpi	r24, 0x28	; 40
    378a:	29 f4       	brne	.+10     	; 0x3796 <__vector_13+0x54>
    378c:	10 92 70 01 	sts	0x0170, r1	; 0x800170 <rx_counter>
    3790:	82 e0       	ldi	r24, 0x02	; 2
    3792:	80 93 6a 01 	sts	0x016A, r24	; 0x80016a <MODB_ERR>
    3796:	ff 91       	pop	r31
    3798:	ef 91       	pop	r30
    379a:	9f 91       	pop	r25
    379c:	8f 91       	pop	r24
    379e:	0f 90       	pop	r0
    37a0:	0f be       	out	0x3f, r0	; 63
    37a2:	0f 90       	pop	r0
    37a4:	1f 90       	pop	r1
    37a6:	18 95       	reti

000037a8 <modb_putchar>:
    37a8:	5d 9b       	sbis	0x0b, 5	; 11
    37aa:	fe cf       	rjmp	.-4      	; 0x37a8 <modb_putchar>
    37ac:	8c b9       	out	0x0c, r24	; 12
    37ae:	5e 9b       	sbis	0x0b, 6	; 11
    37b0:	fe cf       	rjmp	.-4      	; 0x37ae <modb_putchar+0x6>
    37b2:	5e 9a       	sbi	0x0b, 6	; 11
    37b4:	08 95       	ret

000037b6 <CRC.constprop.0>:
    37b6:	28 2f       	mov	r18, r24
    37b8:	8f ef       	ldi	r24, 0xFF	; 255
    37ba:	9f ef       	ldi	r25, 0xFF	; 255
    37bc:	e0 ec       	ldi	r30, 0xC0	; 192
    37be:	f5 e0       	ldi	r31, 0x05	; 5
    37c0:	21 50       	subi	r18, 0x01	; 1
    37c2:	b0 f0       	brcs	.+44     	; 0x37f0 <CRC.constprop.0+0x3a>
    37c4:	bf 01       	movw	r22, r30
    37c6:	6f 5f       	subi	r22, 0xFF	; 255
    37c8:	7f 4f       	sbci	r23, 0xFF	; 255
    37ca:	30 81       	ld	r19, Z
    37cc:	83 27       	eor	r24, r19
    37ce:	38 e0       	ldi	r19, 0x08	; 8
    37d0:	ac 01       	movw	r20, r24
    37d2:	56 95       	lsr	r21
    37d4:	47 95       	ror	r20
    37d6:	80 ff       	sbrs	r24, 0
    37d8:	06 c0       	rjmp	.+12     	; 0x37e6 <CRC.constprop.0+0x30>
    37da:	ca 01       	movw	r24, r20
    37dc:	e1 e0       	ldi	r30, 0x01	; 1
    37de:	8e 27       	eor	r24, r30
    37e0:	e0 ea       	ldi	r30, 0xA0	; 160
    37e2:	9e 27       	eor	r25, r30
    37e4:	01 c0       	rjmp	.+2      	; 0x37e8 <CRC.constprop.0+0x32>
    37e6:	ca 01       	movw	r24, r20
    37e8:	31 50       	subi	r19, 0x01	; 1
    37ea:	91 f7       	brne	.-28     	; 0x37d0 <CRC.constprop.0+0x1a>
    37ec:	fb 01       	movw	r30, r22
    37ee:	e8 cf       	rjmp	.-48     	; 0x37c0 <CRC.constprop.0+0xa>
    37f0:	08 95       	ret

000037f2 <MODB_init>:
    37f2:	0f 93       	push	r16
    37f4:	1f 93       	push	r17
    37f6:	cf 93       	push	r28
    37f8:	df 93       	push	r29
    37fa:	18 2f       	mov	r17, r24
    37fc:	c6 2f       	mov	r28, r22
    37fe:	66 23       	and	r22, r22
    3800:	11 f0       	breq	.+4      	; 0x3806 <MODB_init+0x14>
    3802:	01 e0       	ldi	r16, 0x01	; 1
    3804:	01 c0       	rjmp	.+2      	; 0x3808 <MODB_init+0x16>
    3806:	02 e0       	ldi	r16, 0x02	; 2
    3808:	11 30       	cpi	r17, 0x01	; 1
    380a:	11 f0       	breq	.+4      	; 0x3810 <MODB_init+0x1e>
    380c:	d8 e0       	ldi	r29, 0x08	; 8
    380e:	01 c0       	rjmp	.+2      	; 0x3812 <MODB_init+0x20>
    3810:	d7 e0       	ldi	r29, 0x07	; 7
    3812:	84 e0       	ldi	r24, 0x04	; 4
    3814:	22 0f       	add	r18, r18
    3816:	33 1f       	adc	r19, r19
    3818:	44 1f       	adc	r20, r20
    381a:	55 1f       	adc	r21, r21
    381c:	8a 95       	dec	r24
    381e:	d1 f7       	brne	.-12     	; 0x3814 <MODB_init+0x22>
    3820:	60 e0       	ldi	r22, 0x00	; 0
    3822:	74 e2       	ldi	r23, 0x24	; 36
    3824:	84 ef       	ldi	r24, 0xF4	; 244
    3826:	90 e0       	ldi	r25, 0x00	; 0
    3828:	0e 94 da 1d 	call	0x3bb4	; 0x3bb4 <__udivmodsi4>
    382c:	21 50       	subi	r18, 0x01	; 1
    382e:	31 09       	sbc	r19, r1
    3830:	2f 77       	andi	r18, 0x7F	; 127
    3832:	33 27       	eor	r19, r19
    3834:	d5 50       	subi	r29, 0x05	; 5
    3836:	8e 9a       	sbi	0x11, 6	; 17
    3838:	96 98       	cbi	0x12, 6	; 18
    383a:	10 93 6f 01 	sts	0x016F, r17	; 0x80016f <modb_type>
    383e:	11 30       	cpi	r17, 0x01	; 1
    3840:	29 f0       	breq	.+10     	; 0x384c <MODB_init+0x5a>
    3842:	82 e0       	ldi	r24, 0x02	; 2
    3844:	90 e0       	ldi	r25, 0x00	; 0
    3846:	a0 e0       	ldi	r26, 0x00	; 0
    3848:	b0 e0       	ldi	r27, 0x00	; 0
    384a:	04 c0       	rjmp	.+8      	; 0x3854 <MODB_init+0x62>
    384c:	88 ee       	ldi	r24, 0xE8	; 232
    384e:	93 e0       	ldi	r25, 0x03	; 3
    3850:	a0 e0       	ldi	r26, 0x00	; 0
    3852:	b0 e0       	ldi	r27, 0x00	; 0
    3854:	80 93 6b 01 	sts	0x016B, r24	; 0x80016b <val_timeout>
    3858:	90 93 6c 01 	sts	0x016C, r25	; 0x80016c <val_timeout+0x1>
    385c:	a0 93 6d 01 	sts	0x016D, r26	; 0x80016d <val_timeout+0x2>
    3860:	b0 93 6e 01 	sts	0x016E, r27	; 0x80016e <val_timeout+0x3>
    3864:	91 9a       	sbi	0x12, 1	; 18
    3866:	89 9a       	sbi	0x11, 1	; 17
    3868:	90 9a       	sbi	0x12, 0	; 18
    386a:	88 98       	cbi	0x11, 0	; 17
    386c:	1b b8       	out	0x0b, r1	; 11
    386e:	88 e9       	ldi	r24, 0x98	; 152
    3870:	8a b9       	out	0x0a, r24	; 10
    3872:	81 e0       	ldi	r24, 0x01	; 1
    3874:	02 30       	cpi	r16, 0x02	; 2
    3876:	09 f0       	breq	.+2      	; 0x387a <MODB_init+0x88>
    3878:	80 e0       	ldi	r24, 0x00	; 0
    387a:	c0 68       	ori	r28, 0x80	; 128
    387c:	8c 2b       	or	r24, r28
    387e:	cd 2f       	mov	r28, r29
    3880:	cc 0f       	add	r28, r28
    3882:	c8 2b       	or	r28, r24
    3884:	c0 bd       	out	0x20, r28	; 32
    3886:	10 bc       	out	0x20, r1	; 32
    3888:	29 b9       	out	0x09, r18	; 9
    388a:	df 91       	pop	r29
    388c:	cf 91       	pop	r28
    388e:	1f 91       	pop	r17
    3890:	0f 91       	pop	r16
    3892:	08 95       	ret

00003894 <putModbMsg>:
    3894:	ef 92       	push	r14
    3896:	ff 92       	push	r15
    3898:	0f 93       	push	r16
    389a:	1f 93       	push	r17
    389c:	cf 93       	push	r28
    389e:	df 93       	push	r29
    38a0:	c8 2f       	mov	r28, r24
    38a2:	80 91 6f 01 	lds	r24, 0x016F	; 0x80016f <modb_type>
    38a6:	88 23       	and	r24, r24
    38a8:	41 f0       	breq	.+16     	; 0x38ba <putModbMsg+0x26>
    38aa:	81 30       	cpi	r24, 0x01	; 1
    38ac:	09 f0       	breq	.+2      	; 0x38b0 <putModbMsg+0x1c>
    38ae:	8e c0       	rjmp	.+284    	; 0x39cc <putModbMsg+0x138>
    38b0:	9c 2f       	mov	r25, r28
    38b2:	80 e0       	ldi	r24, 0x00	; 0
    38b4:	e0 ec       	ldi	r30, 0xC0	; 192
    38b6:	f5 e0       	ldi	r31, 0x05	; 5
    38b8:	35 c0       	rjmp	.+106    	; 0x3924 <putModbMsg+0x90>
    38ba:	8c 2f       	mov	r24, r28
    38bc:	0e 94 db 1b 	call	0x37b6	; 0x37b6 <CRC.constprop.0>
    38c0:	f8 2e       	mov	r15, r24
    38c2:	d9 2f       	mov	r29, r25
    38c4:	96 9a       	sbi	0x12, 6	; 18
    38c6:	00 ec       	ldi	r16, 0xC0	; 192
    38c8:	15 e0       	ldi	r17, 0x05	; 5
    38ca:	cc 23       	and	r28, r28
    38cc:	39 f0       	breq	.+14     	; 0x38dc <putModbMsg+0x48>
    38ce:	f8 01       	movw	r30, r16
    38d0:	81 91       	ld	r24, Z+
    38d2:	8f 01       	movw	r16, r30
    38d4:	0e 94 d4 1b 	call	0x37a8	; 0x37a8 <modb_putchar>
    38d8:	c1 50       	subi	r28, 0x01	; 1
    38da:	f7 cf       	rjmp	.-18     	; 0x38ca <putModbMsg+0x36>
    38dc:	8f 2d       	mov	r24, r15
    38de:	0e 94 d4 1b 	call	0x37a8	; 0x37a8 <modb_putchar>
    38e2:	8d 2f       	mov	r24, r29
    38e4:	0e 94 d4 1b 	call	0x37a8	; 0x37a8 <modb_putchar>
    38e8:	96 98       	cbi	0x12, 6	; 18
    38ea:	80 91 6b 01 	lds	r24, 0x016B	; 0x80016b <val_timeout>
    38ee:	90 91 6c 01 	lds	r25, 0x016C	; 0x80016c <val_timeout+0x1>
    38f2:	a0 91 6d 01 	lds	r26, 0x016D	; 0x80016d <val_timeout+0x2>
    38f6:	b0 91 6e 01 	lds	r27, 0x016E	; 0x80016e <val_timeout+0x3>
    38fa:	80 93 72 01 	sts	0x0172, r24	; 0x800172 <MODB_timeout>
    38fe:	90 93 73 01 	sts	0x0173, r25	; 0x800173 <MODB_timeout+0x1>
    3902:	a0 93 74 01 	sts	0x0174, r26	; 0x800174 <MODB_timeout+0x2>
    3906:	b0 93 75 01 	sts	0x0175, r27	; 0x800175 <MODB_timeout+0x3>
    390a:	80 91 72 01 	lds	r24, 0x0172	; 0x800172 <MODB_timeout>
    390e:	90 91 73 01 	lds	r25, 0x0173	; 0x800173 <MODB_timeout+0x1>
    3912:	a0 91 74 01 	lds	r26, 0x0174	; 0x800174 <MODB_timeout+0x2>
    3916:	b0 91 75 01 	lds	r27, 0x0175	; 0x800175 <MODB_timeout+0x3>
    391a:	89 2b       	or	r24, r25
    391c:	8a 2b       	or	r24, r26
    391e:	8b 2b       	or	r24, r27
    3920:	a1 f7       	brne	.-24     	; 0x390a <putModbMsg+0x76>
    3922:	54 c0       	rjmp	.+168    	; 0x39cc <putModbMsg+0x138>
    3924:	91 50       	subi	r25, 0x01	; 1
    3926:	20 f0       	brcs	.+8      	; 0x3930 <putModbMsg+0x9c>
    3928:	20 81       	ld	r18, Z
    392a:	82 0f       	add	r24, r18
    392c:	31 96       	adiw	r30, 0x01	; 1
    392e:	fa cf       	rjmp	.-12     	; 0x3924 <putModbMsg+0x90>
    3930:	d8 2f       	mov	r29, r24
    3932:	d1 95       	neg	r29
    3934:	96 9a       	sbi	0x12, 6	; 18
    3936:	ff ef       	ldi	r31, 0xFF	; 255
    3938:	29 ef       	ldi	r18, 0xF9	; 249
    393a:	80 e0       	ldi	r24, 0x00	; 0
    393c:	f1 50       	subi	r31, 0x01	; 1
    393e:	20 40       	sbci	r18, 0x00	; 0
    3940:	80 40       	sbci	r24, 0x00	; 0
    3942:	e1 f7       	brne	.-8      	; 0x393c <putModbMsg+0xa8>
    3944:	00 c0       	rjmp	.+0      	; 0x3946 <putModbMsg+0xb2>
    3946:	00 00       	nop
    3948:	8a e3       	ldi	r24, 0x3A	; 58
    394a:	0e 94 d4 1b 	call	0x37a8	; 0x37a8 <modb_putchar>
    394e:	00 ec       	ldi	r16, 0xC0	; 192
    3950:	15 e0       	ldi	r17, 0x05	; 5
    3952:	cc 23       	and	r28, r28
    3954:	f1 f0       	breq	.+60     	; 0x3992 <putModbMsg+0xfe>
    3956:	78 01       	movw	r14, r16
    3958:	f8 01       	movw	r30, r16
    395a:	80 81       	ld	r24, Z
    395c:	82 95       	swap	r24
    395e:	8f 70       	andi	r24, 0x0F	; 15
    3960:	90 e3       	ldi	r25, 0x30	; 48
    3962:	98 0f       	add	r25, r24
    3964:	9a 33       	cpi	r25, 0x3A	; 58
    3966:	10 f0       	brcs	.+4      	; 0x396c <putModbMsg+0xd8>
    3968:	89 5c       	subi	r24, 0xC9	; 201
    396a:	01 c0       	rjmp	.+2      	; 0x396e <putModbMsg+0xda>
    396c:	89 2f       	mov	r24, r25
    396e:	0e 94 d4 1b 	call	0x37a8	; 0x37a8 <modb_putchar>
    3972:	0f 5f       	subi	r16, 0xFF	; 255
    3974:	1f 4f       	sbci	r17, 0xFF	; 255
    3976:	f7 01       	movw	r30, r14
    3978:	80 81       	ld	r24, Z
    397a:	8f 70       	andi	r24, 0x0F	; 15
    397c:	90 e3       	ldi	r25, 0x30	; 48
    397e:	98 0f       	add	r25, r24
    3980:	9a 33       	cpi	r25, 0x3A	; 58
    3982:	10 f0       	brcs	.+4      	; 0x3988 <putModbMsg+0xf4>
    3984:	89 5c       	subi	r24, 0xC9	; 201
    3986:	01 c0       	rjmp	.+2      	; 0x398a <putModbMsg+0xf6>
    3988:	89 2f       	mov	r24, r25
    398a:	0e 94 d4 1b 	call	0x37a8	; 0x37a8 <modb_putchar>
    398e:	c1 50       	subi	r28, 0x01	; 1
    3990:	e0 cf       	rjmp	.-64     	; 0x3952 <putModbMsg+0xbe>
    3992:	9d 2f       	mov	r25, r29
    3994:	92 95       	swap	r25
    3996:	9f 70       	andi	r25, 0x0F	; 15
    3998:	80 e3       	ldi	r24, 0x30	; 48
    399a:	89 0f       	add	r24, r25
    399c:	8a 33       	cpi	r24, 0x3A	; 58
    399e:	10 f0       	brcs	.+4      	; 0x39a4 <putModbMsg+0x110>
    39a0:	87 e3       	ldi	r24, 0x37	; 55
    39a2:	89 0f       	add	r24, r25
    39a4:	0e 94 d4 1b 	call	0x37a8	; 0x37a8 <modb_putchar>
    39a8:	8d 2f       	mov	r24, r29
    39aa:	8f 70       	andi	r24, 0x0F	; 15
    39ac:	d0 e3       	ldi	r29, 0x30	; 48
    39ae:	d8 0f       	add	r29, r24
    39b0:	da 33       	cpi	r29, 0x3A	; 58
    39b2:	10 f0       	brcs	.+4      	; 0x39b8 <putModbMsg+0x124>
    39b4:	89 5c       	subi	r24, 0xC9	; 201
    39b6:	01 c0       	rjmp	.+2      	; 0x39ba <putModbMsg+0x126>
    39b8:	8d 2f       	mov	r24, r29
    39ba:	0e 94 d4 1b 	call	0x37a8	; 0x37a8 <modb_putchar>
    39be:	8d e0       	ldi	r24, 0x0D	; 13
    39c0:	0e 94 d4 1b 	call	0x37a8	; 0x37a8 <modb_putchar>
    39c4:	8a e0       	ldi	r24, 0x0A	; 10
    39c6:	0e 94 d4 1b 	call	0x37a8	; 0x37a8 <modb_putchar>
    39ca:	96 98       	cbi	0x12, 6	; 18
    39cc:	df 91       	pop	r29
    39ce:	cf 91       	pop	r28
    39d0:	1f 91       	pop	r17
    39d2:	0f 91       	pop	r16
    39d4:	ff 90       	pop	r15
    39d6:	ef 90       	pop	r14
    39d8:	08 95       	ret

000039da <getModbMsg>:
    39da:	8f 92       	push	r8
    39dc:	9f 92       	push	r9
    39de:	af 92       	push	r10
    39e0:	bf 92       	push	r11
    39e2:	cf 92       	push	r12
    39e4:	df 92       	push	r13
    39e6:	ef 92       	push	r14
    39e8:	ff 92       	push	r15
    39ea:	0f 93       	push	r16
    39ec:	1f 93       	push	r17
    39ee:	cf 93       	push	r28
    39f0:	c0 90 6b 01 	lds	r12, 0x016B	; 0x80016b <val_timeout>
    39f4:	d0 90 6c 01 	lds	r13, 0x016C	; 0x80016c <val_timeout+0x1>
    39f8:	e0 90 6d 01 	lds	r14, 0x016D	; 0x80016d <val_timeout+0x2>
    39fc:	f0 90 6e 01 	lds	r15, 0x016E	; 0x80016e <val_timeout+0x3>
    3a00:	60 91 6f 01 	lds	r22, 0x016F	; 0x80016f <modb_type>
    3a04:	90 91 e8 05 	lds	r25, 0x05E8	; 0x8005e8 <rd_index>
    3a08:	20 e0       	ldi	r18, 0x00	; 0
    3a0a:	80 e0       	ldi	r24, 0x00	; 0
    3a0c:	c0 92 72 01 	sts	0x0172, r12	; 0x800172 <MODB_timeout>
    3a10:	d0 92 73 01 	sts	0x0173, r13	; 0x800173 <MODB_timeout+0x1>
    3a14:	e0 92 74 01 	sts	0x0174, r14	; 0x800174 <MODB_timeout+0x2>
    3a18:	f0 92 75 01 	sts	0x0175, r15	; 0x800175 <MODB_timeout+0x3>
    3a1c:	30 91 70 01 	lds	r19, 0x0170	; 0x800170 <rx_counter>
    3a20:	31 11       	cpse	r19, r1
    3a22:	0d c0       	rjmp	.+26     	; 0x3a3e <getModbMsg+0x64>
    3a24:	80 90 72 01 	lds	r8, 0x0172	; 0x800172 <MODB_timeout>
    3a28:	90 90 73 01 	lds	r9, 0x0173	; 0x800173 <MODB_timeout+0x1>
    3a2c:	a0 90 74 01 	lds	r10, 0x0174	; 0x800174 <MODB_timeout+0x2>
    3a30:	b0 90 75 01 	lds	r11, 0x0175	; 0x800175 <MODB_timeout+0x3>
    3a34:	89 28       	or	r8, r9
    3a36:	8a 28       	or	r8, r10
    3a38:	8b 28       	or	r8, r11
    3a3a:	81 f7       	brne	.-32     	; 0x3a1c <getModbMsg+0x42>
    3a3c:	34 c0       	rjmp	.+104    	; 0x3aa6 <getModbMsg+0xcc>
    3a3e:	e9 2f       	mov	r30, r25
    3a40:	f0 e0       	ldi	r31, 0x00	; 0
    3a42:	9f 5f       	subi	r25, 0xFF	; 255
    3a44:	61 11       	cpse	r22, r1
    3a46:	0a c0       	rjmp	.+20     	; 0x3a5c <getModbMsg+0x82>
    3a48:	e8 56       	subi	r30, 0x68	; 104
    3a4a:	fa 4f       	sbci	r31, 0xFA	; 250
    3a4c:	30 81       	ld	r19, Z
    3a4e:	e8 2f       	mov	r30, r24
    3a50:	f0 e0       	ldi	r31, 0x00	; 0
    3a52:	e0 54       	subi	r30, 0x40	; 64
    3a54:	fa 4f       	sbci	r31, 0xFA	; 250
    3a56:	30 83       	st	Z, r19
    3a58:	8f 5f       	subi	r24, 0xFF	; 255
    3a5a:	1a c0       	rjmp	.+52     	; 0x3a90 <getModbMsg+0xb6>
    3a5c:	e8 56       	subi	r30, 0x68	; 104
    3a5e:	fa 4f       	sbci	r31, 0xFA	; 250
    3a60:	30 81       	ld	r19, Z
    3a62:	3d 30       	cpi	r19, 0x0D	; 13
    3a64:	09 f4       	brne	.+2      	; 0x3a68 <getModbMsg+0x8e>
    3a66:	3c c0       	rjmp	.+120    	; 0x3ae0 <getModbMsg+0x106>
    3a68:	3a 33       	cpi	r19, 0x3A	; 58
    3a6a:	91 f0       	breq	.+36     	; 0x3a90 <getModbMsg+0xb6>
    3a6c:	48 2f       	mov	r20, r24
    3a6e:	50 e0       	ldi	r21, 0x00	; 0
    3a70:	21 11       	cpse	r18, r1
    3a72:	58 c0       	rjmp	.+176    	; 0x3b24 <getModbMsg+0x14a>
    3a74:	20 81       	ld	r18, Z
    3a76:	30 ed       	ldi	r19, 0xD0	; 208
    3a78:	32 0f       	add	r19, r18
    3a7a:	3a 32       	cpi	r19, 0x2A	; 42
    3a7c:	08 f4       	brcc	.+2      	; 0x3a80 <getModbMsg+0xa6>
    3a7e:	4c c0       	rjmp	.+152    	; 0x3b18 <getModbMsg+0x13e>
    3a80:	27 55       	subi	r18, 0x57	; 87
    3a82:	fa 01       	movw	r30, r20
    3a84:	e0 54       	subi	r30, 0x40	; 64
    3a86:	fa 4f       	sbci	r31, 0xFA	; 250
    3a88:	22 95       	swap	r18
    3a8a:	20 7f       	andi	r18, 0xF0	; 240
    3a8c:	20 83       	st	Z, r18
    3a8e:	21 e0       	ldi	r18, 0x01	; 1
    3a90:	98 32       	cpi	r25, 0x28	; 40
    3a92:	09 f4       	brne	.+2      	; 0x3a96 <getModbMsg+0xbc>
    3a94:	90 e0       	ldi	r25, 0x00	; 0
    3a96:	f8 94       	cli
    3a98:	30 91 70 01 	lds	r19, 0x0170	; 0x800170 <rx_counter>
    3a9c:	31 50       	subi	r19, 0x01	; 1
    3a9e:	30 93 70 01 	sts	0x0170, r19	; 0x800170 <rx_counter>
    3aa2:	78 94       	sei
    3aa4:	b3 cf       	rjmp	.-154    	; 0x3a0c <getModbMsg+0x32>
    3aa6:	61 11       	cpse	r22, r1
    3aa8:	53 c0       	rjmp	.+166    	; 0x3b50 <getModbMsg+0x176>
    3aaa:	90 93 e8 05 	sts	0x05E8, r25	; 0x8005e8 <rd_index>
    3aae:	28 2f       	mov	r18, r24
    3ab0:	30 e0       	ldi	r19, 0x00	; 0
    3ab2:	20 54       	subi	r18, 0x40	; 64
    3ab4:	3a 4f       	sbci	r19, 0xFA	; 250
    3ab6:	f9 01       	movw	r30, r18
    3ab8:	31 97       	sbiw	r30, 0x01	; 1
    3aba:	00 81       	ld	r16, Z
    3abc:	10 e0       	ldi	r17, 0x00	; 0
    3abe:	10 2f       	mov	r17, r16
    3ac0:	00 27       	eor	r16, r16
    3ac2:	31 97       	sbiw	r30, 0x01	; 1
    3ac4:	90 81       	ld	r25, Z
    3ac6:	09 2b       	or	r16, r25
    3ac8:	ce ef       	ldi	r28, 0xFE	; 254
    3aca:	c8 0f       	add	r28, r24
    3acc:	8c 2f       	mov	r24, r28
    3ace:	0e 94 db 1b 	call	0x37b6	; 0x37b6 <CRC.constprop.0>
    3ad2:	08 17       	cp	r16, r24
    3ad4:	19 07       	cpc	r17, r25
    3ad6:	11 f4       	brne	.+4      	; 0x3adc <getModbMsg+0x102>
    3ad8:	8c 2f       	mov	r24, r28
    3ada:	40 c0       	rjmp	.+128    	; 0x3b5c <getModbMsg+0x182>
    3adc:	85 e0       	ldi	r24, 0x05	; 5
    3ade:	3b c0       	rjmp	.+118    	; 0x3b56 <getModbMsg+0x17c>
    3ae0:	98 32       	cpi	r25, 0x28	; 40
    3ae2:	19 f0       	breq	.+6      	; 0x3aea <getModbMsg+0x110>
    3ae4:	90 93 e8 05 	sts	0x05E8, r25	; 0x8005e8 <rd_index>
    3ae8:	02 c0       	rjmp	.+4      	; 0x3aee <getModbMsg+0x114>
    3aea:	10 92 e8 05 	sts	0x05E8, r1	; 0x8005e8 <rd_index>
    3aee:	f8 94       	cli
    3af0:	90 91 70 01 	lds	r25, 0x0170	; 0x800170 <rx_counter>
    3af4:	91 50       	subi	r25, 0x01	; 1
    3af6:	90 93 70 01 	sts	0x0170, r25	; 0x800170 <rx_counter>
    3afa:	78 94       	sei
    3afc:	28 2f       	mov	r18, r24
    3afe:	90 e0       	ldi	r25, 0x00	; 0
    3b00:	e0 ec       	ldi	r30, 0xC0	; 192
    3b02:	f5 e0       	ldi	r31, 0x05	; 5
    3b04:	21 50       	subi	r18, 0x01	; 1
    3b06:	20 f0       	brcs	.+8      	; 0x3b10 <getModbMsg+0x136>
    3b08:	30 81       	ld	r19, Z
    3b0a:	93 0f       	add	r25, r19
    3b0c:	31 96       	adiw	r30, 0x01	; 1
    3b0e:	fa cf       	rjmp	.-12     	; 0x3b04 <getModbMsg+0x12a>
    3b10:	91 11       	cpse	r25, r1
    3b12:	e4 cf       	rjmp	.-56     	; 0x3adc <getModbMsg+0x102>
    3b14:	81 50       	subi	r24, 0x01	; 1
    3b16:	22 c0       	rjmp	.+68     	; 0x3b5c <getModbMsg+0x182>
    3b18:	3a 30       	cpi	r19, 0x0A	; 10
    3b1a:	10 f0       	brcs	.+4      	; 0x3b20 <getModbMsg+0x146>
    3b1c:	27 53       	subi	r18, 0x37	; 55
    3b1e:	b1 cf       	rjmp	.-158    	; 0x3a82 <getModbMsg+0xa8>
    3b20:	23 2f       	mov	r18, r19
    3b22:	af cf       	rjmp	.-162    	; 0x3a82 <getModbMsg+0xa8>
    3b24:	20 81       	ld	r18, Z
    3b26:	30 ed       	ldi	r19, 0xD0	; 208
    3b28:	32 0f       	add	r19, r18
    3b2a:	3a 32       	cpi	r19, 0x2A	; 42
    3b2c:	10 f0       	brcs	.+4      	; 0x3b32 <getModbMsg+0x158>
    3b2e:	27 55       	subi	r18, 0x57	; 87
    3b30:	05 c0       	rjmp	.+10     	; 0x3b3c <getModbMsg+0x162>
    3b32:	3a 30       	cpi	r19, 0x0A	; 10
    3b34:	10 f0       	brcs	.+4      	; 0x3b3a <getModbMsg+0x160>
    3b36:	27 53       	subi	r18, 0x37	; 55
    3b38:	01 c0       	rjmp	.+2      	; 0x3b3c <getModbMsg+0x162>
    3b3a:	23 2f       	mov	r18, r19
    3b3c:	fa 01       	movw	r30, r20
    3b3e:	e0 54       	subi	r30, 0x40	; 64
    3b40:	fa 4f       	sbci	r31, 0xFA	; 250
    3b42:	2f 70       	andi	r18, 0x0F	; 15
    3b44:	30 81       	ld	r19, Z
    3b46:	23 2b       	or	r18, r19
    3b48:	20 83       	st	Z, r18
    3b4a:	8f 5f       	subi	r24, 0xFF	; 255
    3b4c:	20 e0       	ldi	r18, 0x00	; 0
    3b4e:	a0 cf       	rjmp	.-192    	; 0x3a90 <getModbMsg+0xb6>
    3b50:	90 93 e8 05 	sts	0x05E8, r25	; 0x8005e8 <rd_index>
    3b54:	81 e0       	ldi	r24, 0x01	; 1
    3b56:	80 93 6a 01 	sts	0x016A, r24	; 0x80016a <MODB_ERR>
    3b5a:	8f ef       	ldi	r24, 0xFF	; 255
    3b5c:	cf 91       	pop	r28
    3b5e:	1f 91       	pop	r17
    3b60:	0f 91       	pop	r16
    3b62:	ff 90       	pop	r15
    3b64:	ef 90       	pop	r14
    3b66:	df 90       	pop	r13
    3b68:	cf 90       	pop	r12
    3b6a:	bf 90       	pop	r11
    3b6c:	af 90       	pop	r10
    3b6e:	9f 90       	pop	r9
    3b70:	8f 90       	pop	r8
    3b72:	08 95       	ret

00003b74 <__udivmodqi4>:
    3b74:	99 1b       	sub	r25, r25
    3b76:	79 e0       	ldi	r23, 0x09	; 9
    3b78:	04 c0       	rjmp	.+8      	; 0x3b82 <__udivmodqi4_ep>

00003b7a <__udivmodqi4_loop>:
    3b7a:	99 1f       	adc	r25, r25
    3b7c:	96 17       	cp	r25, r22
    3b7e:	08 f0       	brcs	.+2      	; 0x3b82 <__udivmodqi4_ep>
    3b80:	96 1b       	sub	r25, r22

00003b82 <__udivmodqi4_ep>:
    3b82:	88 1f       	adc	r24, r24
    3b84:	7a 95       	dec	r23
    3b86:	c9 f7       	brne	.-14     	; 0x3b7a <__udivmodqi4_loop>
    3b88:	80 95       	com	r24
    3b8a:	08 95       	ret

00003b8c <__divmodhi4>:
    3b8c:	97 fb       	bst	r25, 7
    3b8e:	07 2e       	mov	r0, r23
    3b90:	16 f4       	brtc	.+4      	; 0x3b96 <__divmodhi4+0xa>
    3b92:	00 94       	com	r0
    3b94:	07 d0       	rcall	.+14     	; 0x3ba4 <__divmodhi4_neg1>
    3b96:	77 fd       	sbrc	r23, 7
    3b98:	09 d0       	rcall	.+18     	; 0x3bac <__divmodhi4_neg2>
    3b9a:	0e 94 fc 1d 	call	0x3bf8	; 0x3bf8 <__udivmodhi4>
    3b9e:	07 fc       	sbrc	r0, 7
    3ba0:	05 d0       	rcall	.+10     	; 0x3bac <__divmodhi4_neg2>
    3ba2:	3e f4       	brtc	.+14     	; 0x3bb2 <__divmodhi4_exit>

00003ba4 <__divmodhi4_neg1>:
    3ba4:	90 95       	com	r25
    3ba6:	81 95       	neg	r24
    3ba8:	9f 4f       	sbci	r25, 0xFF	; 255
    3baa:	08 95       	ret

00003bac <__divmodhi4_neg2>:
    3bac:	70 95       	com	r23
    3bae:	61 95       	neg	r22
    3bb0:	7f 4f       	sbci	r23, 0xFF	; 255

00003bb2 <__divmodhi4_exit>:
    3bb2:	08 95       	ret

00003bb4 <__udivmodsi4>:
    3bb4:	a1 e2       	ldi	r26, 0x21	; 33
    3bb6:	1a 2e       	mov	r1, r26
    3bb8:	aa 1b       	sub	r26, r26
    3bba:	bb 1b       	sub	r27, r27
    3bbc:	fd 01       	movw	r30, r26
    3bbe:	0d c0       	rjmp	.+26     	; 0x3bda <__udivmodsi4_ep>

00003bc0 <__udivmodsi4_loop>:
    3bc0:	aa 1f       	adc	r26, r26
    3bc2:	bb 1f       	adc	r27, r27
    3bc4:	ee 1f       	adc	r30, r30
    3bc6:	ff 1f       	adc	r31, r31
    3bc8:	a2 17       	cp	r26, r18
    3bca:	b3 07       	cpc	r27, r19
    3bcc:	e4 07       	cpc	r30, r20
    3bce:	f5 07       	cpc	r31, r21
    3bd0:	20 f0       	brcs	.+8      	; 0x3bda <__udivmodsi4_ep>
    3bd2:	a2 1b       	sub	r26, r18
    3bd4:	b3 0b       	sbc	r27, r19
    3bd6:	e4 0b       	sbc	r30, r20
    3bd8:	f5 0b       	sbc	r31, r21

00003bda <__udivmodsi4_ep>:
    3bda:	66 1f       	adc	r22, r22
    3bdc:	77 1f       	adc	r23, r23
    3bde:	88 1f       	adc	r24, r24
    3be0:	99 1f       	adc	r25, r25
    3be2:	1a 94       	dec	r1
    3be4:	69 f7       	brne	.-38     	; 0x3bc0 <__udivmodsi4_loop>
    3be6:	60 95       	com	r22
    3be8:	70 95       	com	r23
    3bea:	80 95       	com	r24
    3bec:	90 95       	com	r25
    3bee:	9b 01       	movw	r18, r22
    3bf0:	ac 01       	movw	r20, r24
    3bf2:	bd 01       	movw	r22, r26
    3bf4:	cf 01       	movw	r24, r30
    3bf6:	08 95       	ret

00003bf8 <__udivmodhi4>:
    3bf8:	aa 1b       	sub	r26, r26
    3bfa:	bb 1b       	sub	r27, r27
    3bfc:	51 e1       	ldi	r21, 0x11	; 17
    3bfe:	07 c0       	rjmp	.+14     	; 0x3c0e <__udivmodhi4_ep>

00003c00 <__udivmodhi4_loop>:
    3c00:	aa 1f       	adc	r26, r26
    3c02:	bb 1f       	adc	r27, r27
    3c04:	a6 17       	cp	r26, r22
    3c06:	b7 07       	cpc	r27, r23
    3c08:	10 f0       	brcs	.+4      	; 0x3c0e <__udivmodhi4_ep>
    3c0a:	a6 1b       	sub	r26, r22
    3c0c:	b7 0b       	sbc	r27, r23

00003c0e <__udivmodhi4_ep>:
    3c0e:	88 1f       	adc	r24, r24
    3c10:	99 1f       	adc	r25, r25
    3c12:	5a 95       	dec	r21
    3c14:	a9 f7       	brne	.-22     	; 0x3c00 <__udivmodhi4_loop>
    3c16:	80 95       	com	r24
    3c18:	90 95       	com	r25
    3c1a:	bc 01       	movw	r22, r24
    3c1c:	cd 01       	movw	r24, r26
    3c1e:	08 95       	ret

00003c20 <strcat_P>:
    3c20:	fb 01       	movw	r30, r22
    3c22:	dc 01       	movw	r26, r24
    3c24:	0d 90       	ld	r0, X+
    3c26:	00 20       	and	r0, r0
    3c28:	e9 f7       	brne	.-6      	; 0x3c24 <strcat_P+0x4>
    3c2a:	11 97       	sbiw	r26, 0x01	; 1
    3c2c:	05 90       	lpm	r0, Z+
    3c2e:	0d 92       	st	X+, r0
    3c30:	00 20       	and	r0, r0
    3c32:	e1 f7       	brne	.-8      	; 0x3c2c <strcat_P+0xc>
    3c34:	08 95       	ret

00003c36 <strcpy_P>:
    3c36:	fb 01       	movw	r30, r22
    3c38:	dc 01       	movw	r26, r24
    3c3a:	05 90       	lpm	r0, Z+
    3c3c:	0d 92       	st	X+, r0
    3c3e:	00 20       	and	r0, r0
    3c40:	e1 f7       	brne	.-8      	; 0x3c3a <strcpy_P+0x4>
    3c42:	08 95       	ret

00003c44 <__strlen_P>:
    3c44:	fc 01       	movw	r30, r24
    3c46:	05 90       	lpm	r0, Z+
    3c48:	00 20       	and	r0, r0
    3c4a:	e9 f7       	brne	.-6      	; 0x3c46 <__strlen_P+0x2>
    3c4c:	80 95       	com	r24
    3c4e:	90 95       	com	r25
    3c50:	8e 0f       	add	r24, r30
    3c52:	9f 1f       	adc	r25, r31
    3c54:	08 95       	ret

00003c56 <strcat>:
    3c56:	fb 01       	movw	r30, r22
    3c58:	dc 01       	movw	r26, r24
    3c5a:	0d 90       	ld	r0, X+
    3c5c:	00 20       	and	r0, r0
    3c5e:	e9 f7       	brne	.-6      	; 0x3c5a <strcat+0x4>
    3c60:	11 97       	sbiw	r26, 0x01	; 1
    3c62:	01 90       	ld	r0, Z+
    3c64:	0d 92       	st	X+, r0
    3c66:	00 20       	and	r0, r0
    3c68:	e1 f7       	brne	.-8      	; 0x3c62 <strcat+0xc>
    3c6a:	08 95       	ret

00003c6c <__itoa_ncheck>:
    3c6c:	bb 27       	eor	r27, r27
    3c6e:	4a 30       	cpi	r20, 0x0A	; 10
    3c70:	31 f4       	brne	.+12     	; 0x3c7e <__itoa_ncheck+0x12>
    3c72:	99 23       	and	r25, r25
    3c74:	22 f4       	brpl	.+8      	; 0x3c7e <__itoa_ncheck+0x12>
    3c76:	bd e2       	ldi	r27, 0x2D	; 45
    3c78:	90 95       	com	r25
    3c7a:	81 95       	neg	r24
    3c7c:	9f 4f       	sbci	r25, 0xFF	; 255
    3c7e:	0c 94 73 1e 	jmp	0x3ce6	; 0x3ce6 <__utoa_common>

00003c82 <__ltoa_ncheck>:
    3c82:	bb 27       	eor	r27, r27
    3c84:	2a 30       	cpi	r18, 0x0A	; 10
    3c86:	51 f4       	brne	.+20     	; 0x3c9c <__ltoa_ncheck+0x1a>
    3c88:	99 23       	and	r25, r25
    3c8a:	42 f4       	brpl	.+16     	; 0x3c9c <__ltoa_ncheck+0x1a>
    3c8c:	bd e2       	ldi	r27, 0x2D	; 45
    3c8e:	90 95       	com	r25
    3c90:	80 95       	com	r24
    3c92:	70 95       	com	r23
    3c94:	61 95       	neg	r22
    3c96:	7f 4f       	sbci	r23, 0xFF	; 255
    3c98:	8f 4f       	sbci	r24, 0xFF	; 255
    3c9a:	9f 4f       	sbci	r25, 0xFF	; 255
    3c9c:	0c 94 51 1e 	jmp	0x3ca2	; 0x3ca2 <__ultoa_common>

00003ca0 <__ultoa_ncheck>:
    3ca0:	bb 27       	eor	r27, r27

00003ca2 <__ultoa_common>:
    3ca2:	fa 01       	movw	r30, r20
    3ca4:	a6 2f       	mov	r26, r22
    3ca6:	62 17       	cp	r22, r18
    3ca8:	71 05       	cpc	r23, r1
    3caa:	81 05       	cpc	r24, r1
    3cac:	91 05       	cpc	r25, r1
    3cae:	33 0b       	sbc	r19, r19
    3cb0:	30 fb       	bst	r19, 0
    3cb2:	66 f0       	brts	.+24     	; 0x3ccc <__ultoa_common+0x2a>
    3cb4:	aa 27       	eor	r26, r26
    3cb6:	66 0f       	add	r22, r22
    3cb8:	77 1f       	adc	r23, r23
    3cba:	88 1f       	adc	r24, r24
    3cbc:	99 1f       	adc	r25, r25
    3cbe:	aa 1f       	adc	r26, r26
    3cc0:	a2 17       	cp	r26, r18
    3cc2:	10 f0       	brcs	.+4      	; 0x3cc8 <__ultoa_common+0x26>
    3cc4:	a2 1b       	sub	r26, r18
    3cc6:	63 95       	inc	r22
    3cc8:	38 50       	subi	r19, 0x08	; 8
    3cca:	a9 f7       	brne	.-22     	; 0x3cb6 <__ultoa_common+0x14>
    3ccc:	a0 5d       	subi	r26, 0xD0	; 208
    3cce:	aa 33       	cpi	r26, 0x3A	; 58
    3cd0:	08 f0       	brcs	.+2      	; 0x3cd4 <__ultoa_common+0x32>
    3cd2:	a9 5d       	subi	r26, 0xD9	; 217
    3cd4:	a1 93       	st	Z+, r26
    3cd6:	36 f7       	brtc	.-52     	; 0x3ca4 <__ultoa_common+0x2>
    3cd8:	b1 11       	cpse	r27, r1
    3cda:	b1 93       	st	Z+, r27
    3cdc:	10 82       	st	Z, r1
    3cde:	ca 01       	movw	r24, r20
    3ce0:	0c 94 a5 20 	jmp	0x414a	; 0x414a <strrev>

00003ce4 <__utoa_ncheck>:
    3ce4:	bb 27       	eor	r27, r27

00003ce6 <__utoa_common>:
    3ce6:	fb 01       	movw	r30, r22
    3ce8:	55 27       	eor	r21, r21
    3cea:	aa 27       	eor	r26, r26
    3cec:	88 0f       	add	r24, r24
    3cee:	99 1f       	adc	r25, r25
    3cf0:	aa 1f       	adc	r26, r26
    3cf2:	a4 17       	cp	r26, r20
    3cf4:	10 f0       	brcs	.+4      	; 0x3cfa <__utoa_common+0x14>
    3cf6:	a4 1b       	sub	r26, r20
    3cf8:	83 95       	inc	r24
    3cfa:	50 51       	subi	r21, 0x10	; 16
    3cfc:	b9 f7       	brne	.-18     	; 0x3cec <__utoa_common+0x6>
    3cfe:	a0 5d       	subi	r26, 0xD0	; 208
    3d00:	aa 33       	cpi	r26, 0x3A	; 58
    3d02:	08 f0       	brcs	.+2      	; 0x3d06 <__utoa_common+0x20>
    3d04:	a9 5d       	subi	r26, 0xD9	; 217
    3d06:	a1 93       	st	Z+, r26
    3d08:	00 97       	sbiw	r24, 0x00	; 0
    3d0a:	79 f7       	brne	.-34     	; 0x3cea <__utoa_common+0x4>
    3d0c:	b1 11       	cpse	r27, r1
    3d0e:	b1 93       	st	Z+, r27
    3d10:	11 92       	st	Z+, r1
    3d12:	cb 01       	movw	r24, r22
    3d14:	0c 94 a5 20 	jmp	0x414a	; 0x414a <strrev>

00003d18 <sprintf>:
    3d18:	ae e0       	ldi	r26, 0x0E	; 14
    3d1a:	b0 e0       	ldi	r27, 0x00	; 0
    3d1c:	e2 e9       	ldi	r30, 0x92	; 146
    3d1e:	fe e1       	ldi	r31, 0x1E	; 30
    3d20:	0c 94 9b 21 	jmp	0x4336	; 0x4336 <__prologue_saves__+0x1c>
    3d24:	0d 89       	ldd	r16, Y+21	; 0x15
    3d26:	1e 89       	ldd	r17, Y+22	; 0x16
    3d28:	86 e0       	ldi	r24, 0x06	; 6
    3d2a:	8c 83       	std	Y+4, r24	; 0x04
    3d2c:	1a 83       	std	Y+2, r17	; 0x02
    3d2e:	09 83       	std	Y+1, r16	; 0x01
    3d30:	8f ef       	ldi	r24, 0xFF	; 255
    3d32:	9f e7       	ldi	r25, 0x7F	; 127
    3d34:	9e 83       	std	Y+6, r25	; 0x06
    3d36:	8d 83       	std	Y+5, r24	; 0x05
    3d38:	ae 01       	movw	r20, r28
    3d3a:	47 5e       	subi	r20, 0xE7	; 231
    3d3c:	5f 4f       	sbci	r21, 0xFF	; 255
    3d3e:	6f 89       	ldd	r22, Y+23	; 0x17
    3d40:	78 8d       	ldd	r23, Y+24	; 0x18
    3d42:	ce 01       	movw	r24, r28
    3d44:	01 96       	adiw	r24, 0x01	; 1
    3d46:	0e 94 ae 1e 	call	0x3d5c	; 0x3d5c <vfprintf>
    3d4a:	ef 81       	ldd	r30, Y+7	; 0x07
    3d4c:	f8 85       	ldd	r31, Y+8	; 0x08
    3d4e:	e0 0f       	add	r30, r16
    3d50:	f1 1f       	adc	r31, r17
    3d52:	10 82       	st	Z, r1
    3d54:	2e 96       	adiw	r28, 0x0e	; 14
    3d56:	e4 e0       	ldi	r30, 0x04	; 4
    3d58:	0c 94 b7 21 	jmp	0x436e	; 0x436e <__epilogue_restores__+0x1c>

00003d5c <vfprintf>:
    3d5c:	ab e0       	ldi	r26, 0x0B	; 11
    3d5e:	b0 e0       	ldi	r27, 0x00	; 0
    3d60:	e4 eb       	ldi	r30, 0xB4	; 180
    3d62:	fe e1       	ldi	r31, 0x1E	; 30
    3d64:	0c 94 8d 21 	jmp	0x431a	; 0x431a <__prologue_saves__>
    3d68:	6c 01       	movw	r12, r24
    3d6a:	7b 01       	movw	r14, r22
    3d6c:	8a 01       	movw	r16, r20
    3d6e:	fc 01       	movw	r30, r24
    3d70:	17 82       	std	Z+7, r1	; 0x07
    3d72:	16 82       	std	Z+6, r1	; 0x06
    3d74:	83 81       	ldd	r24, Z+3	; 0x03
    3d76:	81 ff       	sbrs	r24, 1
    3d78:	cc c1       	rjmp	.+920    	; 0x4112 <vfprintf+0x3b6>
    3d7a:	ce 01       	movw	r24, r28
    3d7c:	01 96       	adiw	r24, 0x01	; 1
    3d7e:	3c 01       	movw	r6, r24
    3d80:	f6 01       	movw	r30, r12
    3d82:	93 81       	ldd	r25, Z+3	; 0x03
    3d84:	f7 01       	movw	r30, r14
    3d86:	93 fd       	sbrc	r25, 3
    3d88:	85 91       	lpm	r24, Z+
    3d8a:	93 ff       	sbrs	r25, 3
    3d8c:	81 91       	ld	r24, Z+
    3d8e:	7f 01       	movw	r14, r30
    3d90:	88 23       	and	r24, r24
    3d92:	09 f4       	brne	.+2      	; 0x3d96 <vfprintf+0x3a>
    3d94:	ba c1       	rjmp	.+884    	; 0x410a <vfprintf+0x3ae>
    3d96:	85 32       	cpi	r24, 0x25	; 37
    3d98:	39 f4       	brne	.+14     	; 0x3da8 <vfprintf+0x4c>
    3d9a:	93 fd       	sbrc	r25, 3
    3d9c:	85 91       	lpm	r24, Z+
    3d9e:	93 ff       	sbrs	r25, 3
    3da0:	81 91       	ld	r24, Z+
    3da2:	7f 01       	movw	r14, r30
    3da4:	85 32       	cpi	r24, 0x25	; 37
    3da6:	29 f4       	brne	.+10     	; 0x3db2 <vfprintf+0x56>
    3da8:	b6 01       	movw	r22, r12
    3daa:	90 e0       	ldi	r25, 0x00	; 0
    3dac:	0e 94 b5 20 	call	0x416a	; 0x416a <fputc>
    3db0:	e7 cf       	rjmp	.-50     	; 0x3d80 <vfprintf+0x24>
    3db2:	91 2c       	mov	r9, r1
    3db4:	21 2c       	mov	r2, r1
    3db6:	31 2c       	mov	r3, r1
    3db8:	ff e1       	ldi	r31, 0x1F	; 31
    3dba:	f3 15       	cp	r31, r3
    3dbc:	d8 f0       	brcs	.+54     	; 0x3df4 <vfprintf+0x98>
    3dbe:	8b 32       	cpi	r24, 0x2B	; 43
    3dc0:	79 f0       	breq	.+30     	; 0x3de0 <vfprintf+0x84>
    3dc2:	38 f4       	brcc	.+14     	; 0x3dd2 <vfprintf+0x76>
    3dc4:	80 32       	cpi	r24, 0x20	; 32
    3dc6:	79 f0       	breq	.+30     	; 0x3de6 <vfprintf+0x8a>
    3dc8:	83 32       	cpi	r24, 0x23	; 35
    3dca:	a1 f4       	brne	.+40     	; 0x3df4 <vfprintf+0x98>
    3dcc:	23 2d       	mov	r18, r3
    3dce:	20 61       	ori	r18, 0x10	; 16
    3dd0:	1d c0       	rjmp	.+58     	; 0x3e0c <vfprintf+0xb0>
    3dd2:	8d 32       	cpi	r24, 0x2D	; 45
    3dd4:	61 f0       	breq	.+24     	; 0x3dee <vfprintf+0x92>
    3dd6:	80 33       	cpi	r24, 0x30	; 48
    3dd8:	69 f4       	brne	.+26     	; 0x3df4 <vfprintf+0x98>
    3dda:	23 2d       	mov	r18, r3
    3ddc:	21 60       	ori	r18, 0x01	; 1
    3dde:	16 c0       	rjmp	.+44     	; 0x3e0c <vfprintf+0xb0>
    3de0:	83 2d       	mov	r24, r3
    3de2:	82 60       	ori	r24, 0x02	; 2
    3de4:	38 2e       	mov	r3, r24
    3de6:	e3 2d       	mov	r30, r3
    3de8:	e4 60       	ori	r30, 0x04	; 4
    3dea:	3e 2e       	mov	r3, r30
    3dec:	2a c0       	rjmp	.+84     	; 0x3e42 <vfprintf+0xe6>
    3dee:	f3 2d       	mov	r31, r3
    3df0:	f8 60       	ori	r31, 0x08	; 8
    3df2:	1d c0       	rjmp	.+58     	; 0x3e2e <vfprintf+0xd2>
    3df4:	37 fc       	sbrc	r3, 7
    3df6:	2d c0       	rjmp	.+90     	; 0x3e52 <vfprintf+0xf6>
    3df8:	20 ed       	ldi	r18, 0xD0	; 208
    3dfa:	28 0f       	add	r18, r24
    3dfc:	2a 30       	cpi	r18, 0x0A	; 10
    3dfe:	40 f0       	brcs	.+16     	; 0x3e10 <vfprintf+0xb4>
    3e00:	8e 32       	cpi	r24, 0x2E	; 46
    3e02:	b9 f4       	brne	.+46     	; 0x3e32 <vfprintf+0xd6>
    3e04:	36 fc       	sbrc	r3, 6
    3e06:	81 c1       	rjmp	.+770    	; 0x410a <vfprintf+0x3ae>
    3e08:	23 2d       	mov	r18, r3
    3e0a:	20 64       	ori	r18, 0x40	; 64
    3e0c:	32 2e       	mov	r3, r18
    3e0e:	19 c0       	rjmp	.+50     	; 0x3e42 <vfprintf+0xe6>
    3e10:	36 fe       	sbrs	r3, 6
    3e12:	06 c0       	rjmp	.+12     	; 0x3e20 <vfprintf+0xc4>
    3e14:	8a e0       	ldi	r24, 0x0A	; 10
    3e16:	98 9e       	mul	r9, r24
    3e18:	20 0d       	add	r18, r0
    3e1a:	11 24       	eor	r1, r1
    3e1c:	92 2e       	mov	r9, r18
    3e1e:	11 c0       	rjmp	.+34     	; 0x3e42 <vfprintf+0xe6>
    3e20:	ea e0       	ldi	r30, 0x0A	; 10
    3e22:	2e 9e       	mul	r2, r30
    3e24:	20 0d       	add	r18, r0
    3e26:	11 24       	eor	r1, r1
    3e28:	22 2e       	mov	r2, r18
    3e2a:	f3 2d       	mov	r31, r3
    3e2c:	f0 62       	ori	r31, 0x20	; 32
    3e2e:	3f 2e       	mov	r3, r31
    3e30:	08 c0       	rjmp	.+16     	; 0x3e42 <vfprintf+0xe6>
    3e32:	8c 36       	cpi	r24, 0x6C	; 108
    3e34:	21 f4       	brne	.+8      	; 0x3e3e <vfprintf+0xe2>
    3e36:	83 2d       	mov	r24, r3
    3e38:	80 68       	ori	r24, 0x80	; 128
    3e3a:	38 2e       	mov	r3, r24
    3e3c:	02 c0       	rjmp	.+4      	; 0x3e42 <vfprintf+0xe6>
    3e3e:	88 36       	cpi	r24, 0x68	; 104
    3e40:	41 f4       	brne	.+16     	; 0x3e52 <vfprintf+0xf6>
    3e42:	f7 01       	movw	r30, r14
    3e44:	93 fd       	sbrc	r25, 3
    3e46:	85 91       	lpm	r24, Z+
    3e48:	93 ff       	sbrs	r25, 3
    3e4a:	81 91       	ld	r24, Z+
    3e4c:	7f 01       	movw	r14, r30
    3e4e:	81 11       	cpse	r24, r1
    3e50:	b3 cf       	rjmp	.-154    	; 0x3db8 <vfprintf+0x5c>
    3e52:	98 2f       	mov	r25, r24
    3e54:	9f 7d       	andi	r25, 0xDF	; 223
    3e56:	95 54       	subi	r25, 0x45	; 69
    3e58:	93 30       	cpi	r25, 0x03	; 3
    3e5a:	28 f4       	brcc	.+10     	; 0x3e66 <vfprintf+0x10a>
    3e5c:	0c 5f       	subi	r16, 0xFC	; 252
    3e5e:	1f 4f       	sbci	r17, 0xFF	; 255
    3e60:	9f e3       	ldi	r25, 0x3F	; 63
    3e62:	99 83       	std	Y+1, r25	; 0x01
    3e64:	0d c0       	rjmp	.+26     	; 0x3e80 <vfprintf+0x124>
    3e66:	83 36       	cpi	r24, 0x63	; 99
    3e68:	31 f0       	breq	.+12     	; 0x3e76 <vfprintf+0x11a>
    3e6a:	83 37       	cpi	r24, 0x73	; 115
    3e6c:	71 f0       	breq	.+28     	; 0x3e8a <vfprintf+0x12e>
    3e6e:	83 35       	cpi	r24, 0x53	; 83
    3e70:	09 f0       	breq	.+2      	; 0x3e74 <vfprintf+0x118>
    3e72:	59 c0       	rjmp	.+178    	; 0x3f26 <vfprintf+0x1ca>
    3e74:	21 c0       	rjmp	.+66     	; 0x3eb8 <vfprintf+0x15c>
    3e76:	f8 01       	movw	r30, r16
    3e78:	80 81       	ld	r24, Z
    3e7a:	89 83       	std	Y+1, r24	; 0x01
    3e7c:	0e 5f       	subi	r16, 0xFE	; 254
    3e7e:	1f 4f       	sbci	r17, 0xFF	; 255
    3e80:	88 24       	eor	r8, r8
    3e82:	83 94       	inc	r8
    3e84:	91 2c       	mov	r9, r1
    3e86:	53 01       	movw	r10, r6
    3e88:	13 c0       	rjmp	.+38     	; 0x3eb0 <vfprintf+0x154>
    3e8a:	28 01       	movw	r4, r16
    3e8c:	f2 e0       	ldi	r31, 0x02	; 2
    3e8e:	4f 0e       	add	r4, r31
    3e90:	51 1c       	adc	r5, r1
    3e92:	f8 01       	movw	r30, r16
    3e94:	a0 80       	ld	r10, Z
    3e96:	b1 80       	ldd	r11, Z+1	; 0x01
    3e98:	36 fe       	sbrs	r3, 6
    3e9a:	03 c0       	rjmp	.+6      	; 0x3ea2 <vfprintf+0x146>
    3e9c:	69 2d       	mov	r22, r9
    3e9e:	70 e0       	ldi	r23, 0x00	; 0
    3ea0:	02 c0       	rjmp	.+4      	; 0x3ea6 <vfprintf+0x14a>
    3ea2:	6f ef       	ldi	r22, 0xFF	; 255
    3ea4:	7f ef       	ldi	r23, 0xFF	; 255
    3ea6:	c5 01       	movw	r24, r10
    3ea8:	0e 94 9a 20 	call	0x4134	; 0x4134 <strnlen>
    3eac:	4c 01       	movw	r8, r24
    3eae:	82 01       	movw	r16, r4
    3eb0:	f3 2d       	mov	r31, r3
    3eb2:	ff 77       	andi	r31, 0x7F	; 127
    3eb4:	3f 2e       	mov	r3, r31
    3eb6:	16 c0       	rjmp	.+44     	; 0x3ee4 <vfprintf+0x188>
    3eb8:	28 01       	movw	r4, r16
    3eba:	22 e0       	ldi	r18, 0x02	; 2
    3ebc:	42 0e       	add	r4, r18
    3ebe:	51 1c       	adc	r5, r1
    3ec0:	f8 01       	movw	r30, r16
    3ec2:	a0 80       	ld	r10, Z
    3ec4:	b1 80       	ldd	r11, Z+1	; 0x01
    3ec6:	36 fe       	sbrs	r3, 6
    3ec8:	03 c0       	rjmp	.+6      	; 0x3ed0 <vfprintf+0x174>
    3eca:	69 2d       	mov	r22, r9
    3ecc:	70 e0       	ldi	r23, 0x00	; 0
    3ece:	02 c0       	rjmp	.+4      	; 0x3ed4 <vfprintf+0x178>
    3ed0:	6f ef       	ldi	r22, 0xFF	; 255
    3ed2:	7f ef       	ldi	r23, 0xFF	; 255
    3ed4:	c5 01       	movw	r24, r10
    3ed6:	0e 94 8f 20 	call	0x411e	; 0x411e <strnlen_P>
    3eda:	4c 01       	movw	r8, r24
    3edc:	f3 2d       	mov	r31, r3
    3ede:	f0 68       	ori	r31, 0x80	; 128
    3ee0:	3f 2e       	mov	r3, r31
    3ee2:	82 01       	movw	r16, r4
    3ee4:	33 fc       	sbrc	r3, 3
    3ee6:	1b c0       	rjmp	.+54     	; 0x3f1e <vfprintf+0x1c2>
    3ee8:	82 2d       	mov	r24, r2
    3eea:	90 e0       	ldi	r25, 0x00	; 0
    3eec:	88 16       	cp	r8, r24
    3eee:	99 06       	cpc	r9, r25
    3ef0:	b0 f4       	brcc	.+44     	; 0x3f1e <vfprintf+0x1c2>
    3ef2:	b6 01       	movw	r22, r12
    3ef4:	80 e2       	ldi	r24, 0x20	; 32
    3ef6:	90 e0       	ldi	r25, 0x00	; 0
    3ef8:	0e 94 b5 20 	call	0x416a	; 0x416a <fputc>
    3efc:	2a 94       	dec	r2
    3efe:	f4 cf       	rjmp	.-24     	; 0x3ee8 <vfprintf+0x18c>
    3f00:	f5 01       	movw	r30, r10
    3f02:	37 fc       	sbrc	r3, 7
    3f04:	85 91       	lpm	r24, Z+
    3f06:	37 fe       	sbrs	r3, 7
    3f08:	81 91       	ld	r24, Z+
    3f0a:	5f 01       	movw	r10, r30
    3f0c:	b6 01       	movw	r22, r12
    3f0e:	90 e0       	ldi	r25, 0x00	; 0
    3f10:	0e 94 b5 20 	call	0x416a	; 0x416a <fputc>
    3f14:	21 10       	cpse	r2, r1
    3f16:	2a 94       	dec	r2
    3f18:	21 e0       	ldi	r18, 0x01	; 1
    3f1a:	82 1a       	sub	r8, r18
    3f1c:	91 08       	sbc	r9, r1
    3f1e:	81 14       	cp	r8, r1
    3f20:	91 04       	cpc	r9, r1
    3f22:	71 f7       	brne	.-36     	; 0x3f00 <vfprintf+0x1a4>
    3f24:	e8 c0       	rjmp	.+464    	; 0x40f6 <vfprintf+0x39a>
    3f26:	84 36       	cpi	r24, 0x64	; 100
    3f28:	11 f0       	breq	.+4      	; 0x3f2e <vfprintf+0x1d2>
    3f2a:	89 36       	cpi	r24, 0x69	; 105
    3f2c:	41 f5       	brne	.+80     	; 0x3f7e <vfprintf+0x222>
    3f2e:	f8 01       	movw	r30, r16
    3f30:	37 fe       	sbrs	r3, 7
    3f32:	07 c0       	rjmp	.+14     	; 0x3f42 <vfprintf+0x1e6>
    3f34:	60 81       	ld	r22, Z
    3f36:	71 81       	ldd	r23, Z+1	; 0x01
    3f38:	82 81       	ldd	r24, Z+2	; 0x02
    3f3a:	93 81       	ldd	r25, Z+3	; 0x03
    3f3c:	0c 5f       	subi	r16, 0xFC	; 252
    3f3e:	1f 4f       	sbci	r17, 0xFF	; 255
    3f40:	08 c0       	rjmp	.+16     	; 0x3f52 <vfprintf+0x1f6>
    3f42:	60 81       	ld	r22, Z
    3f44:	71 81       	ldd	r23, Z+1	; 0x01
    3f46:	07 2e       	mov	r0, r23
    3f48:	00 0c       	add	r0, r0
    3f4a:	88 0b       	sbc	r24, r24
    3f4c:	99 0b       	sbc	r25, r25
    3f4e:	0e 5f       	subi	r16, 0xFE	; 254
    3f50:	1f 4f       	sbci	r17, 0xFF	; 255
    3f52:	f3 2d       	mov	r31, r3
    3f54:	ff 76       	andi	r31, 0x6F	; 111
    3f56:	3f 2e       	mov	r3, r31
    3f58:	97 ff       	sbrs	r25, 7
    3f5a:	09 c0       	rjmp	.+18     	; 0x3f6e <vfprintf+0x212>
    3f5c:	90 95       	com	r25
    3f5e:	80 95       	com	r24
    3f60:	70 95       	com	r23
    3f62:	61 95       	neg	r22
    3f64:	7f 4f       	sbci	r23, 0xFF	; 255
    3f66:	8f 4f       	sbci	r24, 0xFF	; 255
    3f68:	9f 4f       	sbci	r25, 0xFF	; 255
    3f6a:	f0 68       	ori	r31, 0x80	; 128
    3f6c:	3f 2e       	mov	r3, r31
    3f6e:	2a e0       	ldi	r18, 0x0A	; 10
    3f70:	30 e0       	ldi	r19, 0x00	; 0
    3f72:	a3 01       	movw	r20, r6
    3f74:	0e 94 f1 20 	call	0x41e2	; 0x41e2 <__ultoa_invert>
    3f78:	88 2e       	mov	r8, r24
    3f7a:	86 18       	sub	r8, r6
    3f7c:	45 c0       	rjmp	.+138    	; 0x4008 <vfprintf+0x2ac>
    3f7e:	85 37       	cpi	r24, 0x75	; 117
    3f80:	31 f4       	brne	.+12     	; 0x3f8e <vfprintf+0x232>
    3f82:	23 2d       	mov	r18, r3
    3f84:	2f 7e       	andi	r18, 0xEF	; 239
    3f86:	b2 2e       	mov	r11, r18
    3f88:	2a e0       	ldi	r18, 0x0A	; 10
    3f8a:	30 e0       	ldi	r19, 0x00	; 0
    3f8c:	25 c0       	rjmp	.+74     	; 0x3fd8 <vfprintf+0x27c>
    3f8e:	93 2d       	mov	r25, r3
    3f90:	99 7f       	andi	r25, 0xF9	; 249
    3f92:	b9 2e       	mov	r11, r25
    3f94:	8f 36       	cpi	r24, 0x6F	; 111
    3f96:	c1 f0       	breq	.+48     	; 0x3fc8 <vfprintf+0x26c>
    3f98:	18 f4       	brcc	.+6      	; 0x3fa0 <vfprintf+0x244>
    3f9a:	88 35       	cpi	r24, 0x58	; 88
    3f9c:	79 f0       	breq	.+30     	; 0x3fbc <vfprintf+0x260>
    3f9e:	b5 c0       	rjmp	.+362    	; 0x410a <vfprintf+0x3ae>
    3fa0:	80 37       	cpi	r24, 0x70	; 112
    3fa2:	19 f0       	breq	.+6      	; 0x3faa <vfprintf+0x24e>
    3fa4:	88 37       	cpi	r24, 0x78	; 120
    3fa6:	21 f0       	breq	.+8      	; 0x3fb0 <vfprintf+0x254>
    3fa8:	b0 c0       	rjmp	.+352    	; 0x410a <vfprintf+0x3ae>
    3faa:	e9 2f       	mov	r30, r25
    3fac:	e0 61       	ori	r30, 0x10	; 16
    3fae:	be 2e       	mov	r11, r30
    3fb0:	b4 fe       	sbrs	r11, 4
    3fb2:	0d c0       	rjmp	.+26     	; 0x3fce <vfprintf+0x272>
    3fb4:	fb 2d       	mov	r31, r11
    3fb6:	f4 60       	ori	r31, 0x04	; 4
    3fb8:	bf 2e       	mov	r11, r31
    3fba:	09 c0       	rjmp	.+18     	; 0x3fce <vfprintf+0x272>
    3fbc:	34 fe       	sbrs	r3, 4
    3fbe:	0a c0       	rjmp	.+20     	; 0x3fd4 <vfprintf+0x278>
    3fc0:	29 2f       	mov	r18, r25
    3fc2:	26 60       	ori	r18, 0x06	; 6
    3fc4:	b2 2e       	mov	r11, r18
    3fc6:	06 c0       	rjmp	.+12     	; 0x3fd4 <vfprintf+0x278>
    3fc8:	28 e0       	ldi	r18, 0x08	; 8
    3fca:	30 e0       	ldi	r19, 0x00	; 0
    3fcc:	05 c0       	rjmp	.+10     	; 0x3fd8 <vfprintf+0x27c>
    3fce:	20 e1       	ldi	r18, 0x10	; 16
    3fd0:	30 e0       	ldi	r19, 0x00	; 0
    3fd2:	02 c0       	rjmp	.+4      	; 0x3fd8 <vfprintf+0x27c>
    3fd4:	20 e1       	ldi	r18, 0x10	; 16
    3fd6:	32 e0       	ldi	r19, 0x02	; 2
    3fd8:	f8 01       	movw	r30, r16
    3fda:	b7 fe       	sbrs	r11, 7
    3fdc:	07 c0       	rjmp	.+14     	; 0x3fec <vfprintf+0x290>
    3fde:	60 81       	ld	r22, Z
    3fe0:	71 81       	ldd	r23, Z+1	; 0x01
    3fe2:	82 81       	ldd	r24, Z+2	; 0x02
    3fe4:	93 81       	ldd	r25, Z+3	; 0x03
    3fe6:	0c 5f       	subi	r16, 0xFC	; 252
    3fe8:	1f 4f       	sbci	r17, 0xFF	; 255
    3fea:	06 c0       	rjmp	.+12     	; 0x3ff8 <vfprintf+0x29c>
    3fec:	60 81       	ld	r22, Z
    3fee:	71 81       	ldd	r23, Z+1	; 0x01
    3ff0:	80 e0       	ldi	r24, 0x00	; 0
    3ff2:	90 e0       	ldi	r25, 0x00	; 0
    3ff4:	0e 5f       	subi	r16, 0xFE	; 254
    3ff6:	1f 4f       	sbci	r17, 0xFF	; 255
    3ff8:	a3 01       	movw	r20, r6
    3ffa:	0e 94 f1 20 	call	0x41e2	; 0x41e2 <__ultoa_invert>
    3ffe:	88 2e       	mov	r8, r24
    4000:	86 18       	sub	r8, r6
    4002:	fb 2d       	mov	r31, r11
    4004:	ff 77       	andi	r31, 0x7F	; 127
    4006:	3f 2e       	mov	r3, r31
    4008:	36 fe       	sbrs	r3, 6
    400a:	0d c0       	rjmp	.+26     	; 0x4026 <vfprintf+0x2ca>
    400c:	23 2d       	mov	r18, r3
    400e:	2e 7f       	andi	r18, 0xFE	; 254
    4010:	a2 2e       	mov	r10, r18
    4012:	89 14       	cp	r8, r9
    4014:	58 f4       	brcc	.+22     	; 0x402c <vfprintf+0x2d0>
    4016:	34 fe       	sbrs	r3, 4
    4018:	0b c0       	rjmp	.+22     	; 0x4030 <vfprintf+0x2d4>
    401a:	32 fc       	sbrc	r3, 2
    401c:	09 c0       	rjmp	.+18     	; 0x4030 <vfprintf+0x2d4>
    401e:	83 2d       	mov	r24, r3
    4020:	8e 7e       	andi	r24, 0xEE	; 238
    4022:	a8 2e       	mov	r10, r24
    4024:	05 c0       	rjmp	.+10     	; 0x4030 <vfprintf+0x2d4>
    4026:	b8 2c       	mov	r11, r8
    4028:	a3 2c       	mov	r10, r3
    402a:	03 c0       	rjmp	.+6      	; 0x4032 <vfprintf+0x2d6>
    402c:	b8 2c       	mov	r11, r8
    402e:	01 c0       	rjmp	.+2      	; 0x4032 <vfprintf+0x2d6>
    4030:	b9 2c       	mov	r11, r9
    4032:	a4 fe       	sbrs	r10, 4
    4034:	0f c0       	rjmp	.+30     	; 0x4054 <vfprintf+0x2f8>
    4036:	fe 01       	movw	r30, r28
    4038:	e8 0d       	add	r30, r8
    403a:	f1 1d       	adc	r31, r1
    403c:	80 81       	ld	r24, Z
    403e:	80 33       	cpi	r24, 0x30	; 48
    4040:	21 f4       	brne	.+8      	; 0x404a <vfprintf+0x2ee>
    4042:	9a 2d       	mov	r25, r10
    4044:	99 7e       	andi	r25, 0xE9	; 233
    4046:	a9 2e       	mov	r10, r25
    4048:	09 c0       	rjmp	.+18     	; 0x405c <vfprintf+0x300>
    404a:	a2 fe       	sbrs	r10, 2
    404c:	06 c0       	rjmp	.+12     	; 0x405a <vfprintf+0x2fe>
    404e:	b3 94       	inc	r11
    4050:	b3 94       	inc	r11
    4052:	04 c0       	rjmp	.+8      	; 0x405c <vfprintf+0x300>
    4054:	8a 2d       	mov	r24, r10
    4056:	86 78       	andi	r24, 0x86	; 134
    4058:	09 f0       	breq	.+2      	; 0x405c <vfprintf+0x300>
    405a:	b3 94       	inc	r11
    405c:	a3 fc       	sbrc	r10, 3
    405e:	11 c0       	rjmp	.+34     	; 0x4082 <vfprintf+0x326>
    4060:	a0 fe       	sbrs	r10, 0
    4062:	06 c0       	rjmp	.+12     	; 0x4070 <vfprintf+0x314>
    4064:	b2 14       	cp	r11, r2
    4066:	88 f4       	brcc	.+34     	; 0x408a <vfprintf+0x32e>
    4068:	28 0c       	add	r2, r8
    406a:	92 2c       	mov	r9, r2
    406c:	9b 18       	sub	r9, r11
    406e:	0e c0       	rjmp	.+28     	; 0x408c <vfprintf+0x330>
    4070:	b2 14       	cp	r11, r2
    4072:	60 f4       	brcc	.+24     	; 0x408c <vfprintf+0x330>
    4074:	b6 01       	movw	r22, r12
    4076:	80 e2       	ldi	r24, 0x20	; 32
    4078:	90 e0       	ldi	r25, 0x00	; 0
    407a:	0e 94 b5 20 	call	0x416a	; 0x416a <fputc>
    407e:	b3 94       	inc	r11
    4080:	f7 cf       	rjmp	.-18     	; 0x4070 <vfprintf+0x314>
    4082:	b2 14       	cp	r11, r2
    4084:	18 f4       	brcc	.+6      	; 0x408c <vfprintf+0x330>
    4086:	2b 18       	sub	r2, r11
    4088:	02 c0       	rjmp	.+4      	; 0x408e <vfprintf+0x332>
    408a:	98 2c       	mov	r9, r8
    408c:	21 2c       	mov	r2, r1
    408e:	a4 fe       	sbrs	r10, 4
    4090:	10 c0       	rjmp	.+32     	; 0x40b2 <vfprintf+0x356>
    4092:	b6 01       	movw	r22, r12
    4094:	80 e3       	ldi	r24, 0x30	; 48
    4096:	90 e0       	ldi	r25, 0x00	; 0
    4098:	0e 94 b5 20 	call	0x416a	; 0x416a <fputc>
    409c:	a2 fe       	sbrs	r10, 2
    409e:	17 c0       	rjmp	.+46     	; 0x40ce <vfprintf+0x372>
    40a0:	a1 fc       	sbrc	r10, 1
    40a2:	03 c0       	rjmp	.+6      	; 0x40aa <vfprintf+0x34e>
    40a4:	88 e7       	ldi	r24, 0x78	; 120
    40a6:	90 e0       	ldi	r25, 0x00	; 0
    40a8:	02 c0       	rjmp	.+4      	; 0x40ae <vfprintf+0x352>
    40aa:	88 e5       	ldi	r24, 0x58	; 88
    40ac:	90 e0       	ldi	r25, 0x00	; 0
    40ae:	b6 01       	movw	r22, r12
    40b0:	0c c0       	rjmp	.+24     	; 0x40ca <vfprintf+0x36e>
    40b2:	8a 2d       	mov	r24, r10
    40b4:	86 78       	andi	r24, 0x86	; 134
    40b6:	59 f0       	breq	.+22     	; 0x40ce <vfprintf+0x372>
    40b8:	a1 fe       	sbrs	r10, 1
    40ba:	02 c0       	rjmp	.+4      	; 0x40c0 <vfprintf+0x364>
    40bc:	8b e2       	ldi	r24, 0x2B	; 43
    40be:	01 c0       	rjmp	.+2      	; 0x40c2 <vfprintf+0x366>
    40c0:	80 e2       	ldi	r24, 0x20	; 32
    40c2:	a7 fc       	sbrc	r10, 7
    40c4:	8d e2       	ldi	r24, 0x2D	; 45
    40c6:	b6 01       	movw	r22, r12
    40c8:	90 e0       	ldi	r25, 0x00	; 0
    40ca:	0e 94 b5 20 	call	0x416a	; 0x416a <fputc>
    40ce:	89 14       	cp	r8, r9
    40d0:	38 f4       	brcc	.+14     	; 0x40e0 <vfprintf+0x384>
    40d2:	b6 01       	movw	r22, r12
    40d4:	80 e3       	ldi	r24, 0x30	; 48
    40d6:	90 e0       	ldi	r25, 0x00	; 0
    40d8:	0e 94 b5 20 	call	0x416a	; 0x416a <fputc>
    40dc:	9a 94       	dec	r9
    40de:	f7 cf       	rjmp	.-18     	; 0x40ce <vfprintf+0x372>
    40e0:	8a 94       	dec	r8
    40e2:	f3 01       	movw	r30, r6
    40e4:	e8 0d       	add	r30, r8
    40e6:	f1 1d       	adc	r31, r1
    40e8:	80 81       	ld	r24, Z
    40ea:	b6 01       	movw	r22, r12
    40ec:	90 e0       	ldi	r25, 0x00	; 0
    40ee:	0e 94 b5 20 	call	0x416a	; 0x416a <fputc>
    40f2:	81 10       	cpse	r8, r1
    40f4:	f5 cf       	rjmp	.-22     	; 0x40e0 <vfprintf+0x384>
    40f6:	22 20       	and	r2, r2
    40f8:	09 f4       	brne	.+2      	; 0x40fc <vfprintf+0x3a0>
    40fa:	42 ce       	rjmp	.-892    	; 0x3d80 <vfprintf+0x24>
    40fc:	b6 01       	movw	r22, r12
    40fe:	80 e2       	ldi	r24, 0x20	; 32
    4100:	90 e0       	ldi	r25, 0x00	; 0
    4102:	0e 94 b5 20 	call	0x416a	; 0x416a <fputc>
    4106:	2a 94       	dec	r2
    4108:	f6 cf       	rjmp	.-20     	; 0x40f6 <vfprintf+0x39a>
    410a:	f6 01       	movw	r30, r12
    410c:	86 81       	ldd	r24, Z+6	; 0x06
    410e:	97 81       	ldd	r25, Z+7	; 0x07
    4110:	02 c0       	rjmp	.+4      	; 0x4116 <vfprintf+0x3ba>
    4112:	8f ef       	ldi	r24, 0xFF	; 255
    4114:	9f ef       	ldi	r25, 0xFF	; 255
    4116:	2b 96       	adiw	r28, 0x0b	; 11
    4118:	e2 e1       	ldi	r30, 0x12	; 18
    411a:	0c 94 a9 21 	jmp	0x4352	; 0x4352 <__epilogue_restores__>

0000411e <strnlen_P>:
    411e:	fc 01       	movw	r30, r24
    4120:	05 90       	lpm	r0, Z+
    4122:	61 50       	subi	r22, 0x01	; 1
    4124:	70 40       	sbci	r23, 0x00	; 0
    4126:	01 10       	cpse	r0, r1
    4128:	d8 f7       	brcc	.-10     	; 0x4120 <strnlen_P+0x2>
    412a:	80 95       	com	r24
    412c:	90 95       	com	r25
    412e:	8e 0f       	add	r24, r30
    4130:	9f 1f       	adc	r25, r31
    4132:	08 95       	ret

00004134 <strnlen>:
    4134:	fc 01       	movw	r30, r24
    4136:	61 50       	subi	r22, 0x01	; 1
    4138:	70 40       	sbci	r23, 0x00	; 0
    413a:	01 90       	ld	r0, Z+
    413c:	01 10       	cpse	r0, r1
    413e:	d8 f7       	brcc	.-10     	; 0x4136 <strnlen+0x2>
    4140:	80 95       	com	r24
    4142:	90 95       	com	r25
    4144:	8e 0f       	add	r24, r30
    4146:	9f 1f       	adc	r25, r31
    4148:	08 95       	ret

0000414a <strrev>:
    414a:	dc 01       	movw	r26, r24
    414c:	fc 01       	movw	r30, r24
    414e:	67 2f       	mov	r22, r23
    4150:	71 91       	ld	r23, Z+
    4152:	77 23       	and	r23, r23
    4154:	e1 f7       	brne	.-8      	; 0x414e <strrev+0x4>
    4156:	32 97       	sbiw	r30, 0x02	; 2
    4158:	04 c0       	rjmp	.+8      	; 0x4162 <strrev+0x18>
    415a:	7c 91       	ld	r23, X
    415c:	6d 93       	st	X+, r22
    415e:	70 83       	st	Z, r23
    4160:	62 91       	ld	r22, -Z
    4162:	ae 17       	cp	r26, r30
    4164:	bf 07       	cpc	r27, r31
    4166:	c8 f3       	brcs	.-14     	; 0x415a <strrev+0x10>
    4168:	08 95       	ret

0000416a <fputc>:
    416a:	0f 93       	push	r16
    416c:	1f 93       	push	r17
    416e:	cf 93       	push	r28
    4170:	df 93       	push	r29
    4172:	fb 01       	movw	r30, r22
    4174:	23 81       	ldd	r18, Z+3	; 0x03
    4176:	21 fd       	sbrc	r18, 1
    4178:	03 c0       	rjmp	.+6      	; 0x4180 <fputc+0x16>
    417a:	8f ef       	ldi	r24, 0xFF	; 255
    417c:	9f ef       	ldi	r25, 0xFF	; 255
    417e:	2c c0       	rjmp	.+88     	; 0x41d8 <fputc+0x6e>
    4180:	22 ff       	sbrs	r18, 2
    4182:	16 c0       	rjmp	.+44     	; 0x41b0 <fputc+0x46>
    4184:	46 81       	ldd	r20, Z+6	; 0x06
    4186:	57 81       	ldd	r21, Z+7	; 0x07
    4188:	24 81       	ldd	r18, Z+4	; 0x04
    418a:	35 81       	ldd	r19, Z+5	; 0x05
    418c:	42 17       	cp	r20, r18
    418e:	53 07       	cpc	r21, r19
    4190:	44 f4       	brge	.+16     	; 0x41a2 <fputc+0x38>
    4192:	a0 81       	ld	r26, Z
    4194:	b1 81       	ldd	r27, Z+1	; 0x01
    4196:	9d 01       	movw	r18, r26
    4198:	2f 5f       	subi	r18, 0xFF	; 255
    419a:	3f 4f       	sbci	r19, 0xFF	; 255
    419c:	31 83       	std	Z+1, r19	; 0x01
    419e:	20 83       	st	Z, r18
    41a0:	8c 93       	st	X, r24
    41a2:	26 81       	ldd	r18, Z+6	; 0x06
    41a4:	37 81       	ldd	r19, Z+7	; 0x07
    41a6:	2f 5f       	subi	r18, 0xFF	; 255
    41a8:	3f 4f       	sbci	r19, 0xFF	; 255
    41aa:	37 83       	std	Z+7, r19	; 0x07
    41ac:	26 83       	std	Z+6, r18	; 0x06
    41ae:	14 c0       	rjmp	.+40     	; 0x41d8 <fputc+0x6e>
    41b0:	8b 01       	movw	r16, r22
    41b2:	ec 01       	movw	r28, r24
    41b4:	fb 01       	movw	r30, r22
    41b6:	00 84       	ldd	r0, Z+8	; 0x08
    41b8:	f1 85       	ldd	r31, Z+9	; 0x09
    41ba:	e0 2d       	mov	r30, r0
    41bc:	09 95       	icall
    41be:	89 2b       	or	r24, r25
    41c0:	e1 f6       	brne	.-72     	; 0x417a <fputc+0x10>
    41c2:	d8 01       	movw	r26, r16
    41c4:	16 96       	adiw	r26, 0x06	; 6
    41c6:	8d 91       	ld	r24, X+
    41c8:	9c 91       	ld	r25, X
    41ca:	17 97       	sbiw	r26, 0x07	; 7
    41cc:	01 96       	adiw	r24, 0x01	; 1
    41ce:	17 96       	adiw	r26, 0x07	; 7
    41d0:	9c 93       	st	X, r25
    41d2:	8e 93       	st	-X, r24
    41d4:	16 97       	sbiw	r26, 0x06	; 6
    41d6:	ce 01       	movw	r24, r28
    41d8:	df 91       	pop	r29
    41da:	cf 91       	pop	r28
    41dc:	1f 91       	pop	r17
    41de:	0f 91       	pop	r16
    41e0:	08 95       	ret

000041e2 <__ultoa_invert>:
    41e2:	fa 01       	movw	r30, r20
    41e4:	aa 27       	eor	r26, r26
    41e6:	28 30       	cpi	r18, 0x08	; 8
    41e8:	51 f1       	breq	.+84     	; 0x423e <__ultoa_invert+0x5c>
    41ea:	20 31       	cpi	r18, 0x10	; 16
    41ec:	81 f1       	breq	.+96     	; 0x424e <__ultoa_invert+0x6c>
    41ee:	e8 94       	clt
    41f0:	6f 93       	push	r22
    41f2:	6e 7f       	andi	r22, 0xFE	; 254
    41f4:	6e 5f       	subi	r22, 0xFE	; 254
    41f6:	7f 4f       	sbci	r23, 0xFF	; 255
    41f8:	8f 4f       	sbci	r24, 0xFF	; 255
    41fa:	9f 4f       	sbci	r25, 0xFF	; 255
    41fc:	af 4f       	sbci	r26, 0xFF	; 255
    41fe:	b1 e0       	ldi	r27, 0x01	; 1
    4200:	3e d0       	rcall	.+124    	; 0x427e <__ultoa_invert+0x9c>
    4202:	b4 e0       	ldi	r27, 0x04	; 4
    4204:	3c d0       	rcall	.+120    	; 0x427e <__ultoa_invert+0x9c>
    4206:	67 0f       	add	r22, r23
    4208:	78 1f       	adc	r23, r24
    420a:	89 1f       	adc	r24, r25
    420c:	9a 1f       	adc	r25, r26
    420e:	a1 1d       	adc	r26, r1
    4210:	68 0f       	add	r22, r24
    4212:	79 1f       	adc	r23, r25
    4214:	8a 1f       	adc	r24, r26
    4216:	91 1d       	adc	r25, r1
    4218:	a1 1d       	adc	r26, r1
    421a:	6a 0f       	add	r22, r26
    421c:	71 1d       	adc	r23, r1
    421e:	81 1d       	adc	r24, r1
    4220:	91 1d       	adc	r25, r1
    4222:	a1 1d       	adc	r26, r1
    4224:	20 d0       	rcall	.+64     	; 0x4266 <__ultoa_invert+0x84>
    4226:	09 f4       	brne	.+2      	; 0x422a <__ultoa_invert+0x48>
    4228:	68 94       	set
    422a:	3f 91       	pop	r19
    422c:	2a e0       	ldi	r18, 0x0A	; 10
    422e:	26 9f       	mul	r18, r22
    4230:	11 24       	eor	r1, r1
    4232:	30 19       	sub	r19, r0
    4234:	30 5d       	subi	r19, 0xD0	; 208
    4236:	31 93       	st	Z+, r19
    4238:	de f6       	brtc	.-74     	; 0x41f0 <__ultoa_invert+0xe>
    423a:	cf 01       	movw	r24, r30
    423c:	08 95       	ret
    423e:	46 2f       	mov	r20, r22
    4240:	47 70       	andi	r20, 0x07	; 7
    4242:	40 5d       	subi	r20, 0xD0	; 208
    4244:	41 93       	st	Z+, r20
    4246:	b3 e0       	ldi	r27, 0x03	; 3
    4248:	0f d0       	rcall	.+30     	; 0x4268 <__ultoa_invert+0x86>
    424a:	c9 f7       	brne	.-14     	; 0x423e <__ultoa_invert+0x5c>
    424c:	f6 cf       	rjmp	.-20     	; 0x423a <__ultoa_invert+0x58>
    424e:	46 2f       	mov	r20, r22
    4250:	4f 70       	andi	r20, 0x0F	; 15
    4252:	40 5d       	subi	r20, 0xD0	; 208
    4254:	4a 33       	cpi	r20, 0x3A	; 58
    4256:	18 f0       	brcs	.+6      	; 0x425e <__ultoa_invert+0x7c>
    4258:	49 5d       	subi	r20, 0xD9	; 217
    425a:	31 fd       	sbrc	r19, 1
    425c:	40 52       	subi	r20, 0x20	; 32
    425e:	41 93       	st	Z+, r20
    4260:	02 d0       	rcall	.+4      	; 0x4266 <__ultoa_invert+0x84>
    4262:	a9 f7       	brne	.-22     	; 0x424e <__ultoa_invert+0x6c>
    4264:	ea cf       	rjmp	.-44     	; 0x423a <__ultoa_invert+0x58>
    4266:	b4 e0       	ldi	r27, 0x04	; 4
    4268:	a6 95       	lsr	r26
    426a:	97 95       	ror	r25
    426c:	87 95       	ror	r24
    426e:	77 95       	ror	r23
    4270:	67 95       	ror	r22
    4272:	ba 95       	dec	r27
    4274:	c9 f7       	brne	.-14     	; 0x4268 <__ultoa_invert+0x86>
    4276:	00 97       	sbiw	r24, 0x00	; 0
    4278:	61 05       	cpc	r22, r1
    427a:	71 05       	cpc	r23, r1
    427c:	08 95       	ret
    427e:	9b 01       	movw	r18, r22
    4280:	ac 01       	movw	r20, r24
    4282:	0a 2e       	mov	r0, r26
    4284:	06 94       	lsr	r0
    4286:	57 95       	ror	r21
    4288:	47 95       	ror	r20
    428a:	37 95       	ror	r19
    428c:	27 95       	ror	r18
    428e:	ba 95       	dec	r27
    4290:	c9 f7       	brne	.-14     	; 0x4284 <__ultoa_invert+0xa2>
    4292:	62 0f       	add	r22, r18
    4294:	73 1f       	adc	r23, r19
    4296:	84 1f       	adc	r24, r20
    4298:	95 1f       	adc	r25, r21
    429a:	a0 1d       	adc	r26, r0
    429c:	08 95       	ret

0000429e <eeprom_read_byte>:
    429e:	e1 99       	sbic	0x1c, 1	; 28
    42a0:	fe cf       	rjmp	.-4      	; 0x429e <eeprom_read_byte>
    42a2:	9f bb       	out	0x1f, r25	; 31
    42a4:	8e bb       	out	0x1e, r24	; 30
    42a6:	e0 9a       	sbi	0x1c, 0	; 28
    42a8:	99 27       	eor	r25, r25
    42aa:	8d b3       	in	r24, 0x1d	; 29
    42ac:	08 95       	ret

000042ae <eeprom_read_dword>:
    42ae:	a6 e1       	ldi	r26, 0x16	; 22
    42b0:	b0 e0       	ldi	r27, 0x00	; 0
    42b2:	44 e0       	ldi	r20, 0x04	; 4
    42b4:	50 e0       	ldi	r21, 0x00	; 0
    42b6:	0c 94 7f 21 	jmp	0x42fe	; 0x42fe <eeprom_read_blraw>

000042ba <eeprom_read_word>:
    42ba:	a8 e1       	ldi	r26, 0x18	; 24
    42bc:	b0 e0       	ldi	r27, 0x00	; 0
    42be:	42 e0       	ldi	r20, 0x02	; 2
    42c0:	50 e0       	ldi	r21, 0x00	; 0
    42c2:	0c 94 7f 21 	jmp	0x42fe	; 0x42fe <eeprom_read_blraw>

000042c6 <eeprom_write_byte>:
    42c6:	26 2f       	mov	r18, r22

000042c8 <eeprom_write_r18>:
    42c8:	e1 99       	sbic	0x1c, 1	; 28
    42ca:	fe cf       	rjmp	.-4      	; 0x42c8 <eeprom_write_r18>
    42cc:	9f bb       	out	0x1f, r25	; 31
    42ce:	8e bb       	out	0x1e, r24	; 30
    42d0:	2d bb       	out	0x1d, r18	; 29
    42d2:	0f b6       	in	r0, 0x3f	; 63
    42d4:	f8 94       	cli
    42d6:	e2 9a       	sbi	0x1c, 2	; 28
    42d8:	e1 9a       	sbi	0x1c, 1	; 28
    42da:	0f be       	out	0x3f, r0	; 63
    42dc:	01 96       	adiw	r24, 0x01	; 1
    42de:	08 95       	ret

000042e0 <eeprom_write_dword>:
    42e0:	24 2f       	mov	r18, r20
    42e2:	0e 94 64 21 	call	0x42c8	; 0x42c8 <eeprom_write_r18>
    42e6:	25 2f       	mov	r18, r21
    42e8:	0e 94 64 21 	call	0x42c8	; 0x42c8 <eeprom_write_r18>
    42ec:	0c 94 78 21 	jmp	0x42f0	; 0x42f0 <eeprom_write_word>

000042f0 <eeprom_write_word>:
    42f0:	0e 94 63 21 	call	0x42c6	; 0x42c6 <eeprom_write_byte>
    42f4:	27 2f       	mov	r18, r23
    42f6:	0c 94 64 21 	jmp	0x42c8	; 0x42c8 <eeprom_write_r18>

000042fa <eeprom_read_block>:
    42fa:	dc 01       	movw	r26, r24
    42fc:	cb 01       	movw	r24, r22

000042fe <eeprom_read_blraw>:
    42fe:	fc 01       	movw	r30, r24
    4300:	e1 99       	sbic	0x1c, 1	; 28
    4302:	fe cf       	rjmp	.-4      	; 0x4300 <eeprom_read_blraw+0x2>
    4304:	06 c0       	rjmp	.+12     	; 0x4312 <eeprom_read_blraw+0x14>
    4306:	ff bb       	out	0x1f, r31	; 31
    4308:	ee bb       	out	0x1e, r30	; 30
    430a:	e0 9a       	sbi	0x1c, 0	; 28
    430c:	31 96       	adiw	r30, 0x01	; 1
    430e:	0d b2       	in	r0, 0x1d	; 29
    4310:	0d 92       	st	X+, r0
    4312:	41 50       	subi	r20, 0x01	; 1
    4314:	50 40       	sbci	r21, 0x00	; 0
    4316:	b8 f7       	brcc	.-18     	; 0x4306 <eeprom_read_blraw+0x8>
    4318:	08 95       	ret

0000431a <__prologue_saves__>:
    431a:	2f 92       	push	r2
    431c:	3f 92       	push	r3
    431e:	4f 92       	push	r4
    4320:	5f 92       	push	r5
    4322:	6f 92       	push	r6
    4324:	7f 92       	push	r7
    4326:	8f 92       	push	r8
    4328:	9f 92       	push	r9
    432a:	af 92       	push	r10
    432c:	bf 92       	push	r11
    432e:	cf 92       	push	r12
    4330:	df 92       	push	r13
    4332:	ef 92       	push	r14
    4334:	ff 92       	push	r15
    4336:	0f 93       	push	r16
    4338:	1f 93       	push	r17
    433a:	cf 93       	push	r28
    433c:	df 93       	push	r29
    433e:	cd b7       	in	r28, 0x3d	; 61
    4340:	de b7       	in	r29, 0x3e	; 62
    4342:	ca 1b       	sub	r28, r26
    4344:	db 0b       	sbc	r29, r27
    4346:	0f b6       	in	r0, 0x3f	; 63
    4348:	f8 94       	cli
    434a:	de bf       	out	0x3e, r29	; 62
    434c:	0f be       	out	0x3f, r0	; 63
    434e:	cd bf       	out	0x3d, r28	; 61
    4350:	09 94       	ijmp

00004352 <__epilogue_restores__>:
    4352:	2a 88       	ldd	r2, Y+18	; 0x12
    4354:	39 88       	ldd	r3, Y+17	; 0x11
    4356:	48 88       	ldd	r4, Y+16	; 0x10
    4358:	5f 84       	ldd	r5, Y+15	; 0x0f
    435a:	6e 84       	ldd	r6, Y+14	; 0x0e
    435c:	7d 84       	ldd	r7, Y+13	; 0x0d
    435e:	8c 84       	ldd	r8, Y+12	; 0x0c
    4360:	9b 84       	ldd	r9, Y+11	; 0x0b
    4362:	aa 84       	ldd	r10, Y+10	; 0x0a
    4364:	b9 84       	ldd	r11, Y+9	; 0x09
    4366:	c8 84       	ldd	r12, Y+8	; 0x08
    4368:	df 80       	ldd	r13, Y+7	; 0x07
    436a:	ee 80       	ldd	r14, Y+6	; 0x06
    436c:	fd 80       	ldd	r15, Y+5	; 0x05
    436e:	0c 81       	ldd	r16, Y+4	; 0x04
    4370:	1b 81       	ldd	r17, Y+3	; 0x03
    4372:	aa 81       	ldd	r26, Y+2	; 0x02
    4374:	b9 81       	ldd	r27, Y+1	; 0x01
    4376:	ce 0f       	add	r28, r30
    4378:	d1 1d       	adc	r29, r1
    437a:	0f b6       	in	r0, 0x3f	; 63
    437c:	f8 94       	cli
    437e:	de bf       	out	0x3e, r29	; 62
    4380:	0f be       	out	0x3f, r0	; 63
    4382:	cd bf       	out	0x3d, r28	; 61
    4384:	ed 01       	movw	r28, r26
    4386:	08 95       	ret

00004388 <_exit>:
    4388:	f8 94       	cli

0000438a <__stop_program>:
    438a:	ff cf       	rjmp	.-2      	; 0x438a <__stop_program>
